
matrix_good_debugcomm.riscv:     file format elf32-littleriscv

Contents of section .text:
 10094 13010181 2326117e 2324817e 130101e0  ....#&.~#$.~....
 100a4 b7f6ffff 37170000 9307079e b387d700  ....7...........
 100b4 b3862700 9386c668 930707a3 3305f100  ..'....h....3...
 100c4 13870600 13061000 6f00c000 13074706  ........o.....G.
 100d4 630ca702 9307c7f9 23a0c700 93874700  c.......#.....G.
 100e4 e39ce7fe 6ff09ffe 93864606 6382a602  ....o.....F.c...
 100f4 9387c6f9 03a70700 b385e500 93874700  ..............G.
 10104 e39ad7fe 6ff05ffe 93050000 6ff05ffe  ....o._.....o._.
 10114 37140000 1305c49c 33052500 97000000  7.......3.%.....
 10124 e7804025 1305c49c 33052500 97000000  ..@%....3.%.....
 10134 e780c013 37050100 13054553 97000000  ....7.....ES....
 10144 e780c012 13050000 13010120 8320c17e  ........... . .~
 10154 0324817e 1301017f 67800000 37050001  .$.~....g...7...
 10164 13010500 37050002 97000000 e780c027  ....7..........'
 10174 37050001 97000000 e7800001 97000000  7...............
 10184 e7804005 130101ff 23261100 93054500  ..@.....#&....E.
 10194 03250500 97000000 e780c0ef 8320c100  .%........... ..
 101a4 13010101 67800000 93081000 73000000  ....g.......s...
 101b4 13050500 1375f50f 67800000 93070500  .....u..g.......
 101c4 13850700 93082000 73000000 67800000  ...... .s...g...
 101d4 13050500 93083000 73000000 67800000  ......0.s...g...
 101e4 93060500 13870500 93070600 13850600  ................
 101f4 93050700 13860700 93084000 73000000  ..........@.s...
 10204 93070500 67800000 93060500 13870500  ....g...........
 10214 93070600 13850600 93050700 13860700  ................
 10224 93085000 73000000 93070500 67800000  ..P.s.......g...
 10234 13070500 93870500 13050700 93850700  ................
 10244 93086000 73000000 93070500 67800000  ..`.s.......g...
 10254 93070500 13850700 93086000 73000000  ..........`.s...
 10264 93070500 67800000 130101ff 23261100  ....g.......#&..
 10274 23248100 13040500 03450500 630c0500  #$.......E..c...
 10284 13041400 97000000 e78080f3 03450400  .............E..
 10294 e31805fe 8320c100 03248100 13010101  ..... ...$......
 102a4 67800000 130101fe 232e1100 232c8100  g.......#...#,..
 102b4 232a9100 23282101 23263101 13040500  #*..#(!.#&1.....
 102c4 93840500 97000000 e78040ee 9307a000  ..........@.....
 102d4 6302f504 9307d000 630ef502 93071000  c.......c.......
 102e4 63da9702 9384f4ff b3049400 1309a000  c...............
 102f4 9309d000 13041400 a30fa4fe 97000000  ................
 10304 e780c0ea 63082501 63063501 e31494fe  ....c.%.c.5.....
 10314 13840400 23000400 8320c101 03248101  ....#.... ...$..
 10324 83244101 03290101 8329c100 13010102  .$A..)...)......
 10334 67800000 13070500 93061500 83470500  g............G..
 10344 138507fd 03471700 63020702 93861600  .....G..c.......
 10354 93172500 b387a700 93971700 b387e700  ..%.............
 10364 138507fd 03c70600 e31207fe 67800000  ............g...
 10374 13070500 93060500 1305a000 13089000  ................
 10384 63880504 93870600 93861600 33f6a502  c...........3...
 10394 13060603 a38fc6fe 13860500 b3d5a502  ................
 103a4 e362c8fe 23800600 3385e740 6370f702  .b..#...3..@cp..
 103b4 83c60700 03460700 2380c700 2300d700  .....F..#...#...
 103c4 9387f7ff 13071700 e364f7fe 67800000  .........d..g...
 103d4 93070003 2300f700 a3000700 13051000  ....#...........
 103e4 67800000 b7170100 23ac0752 b7170100  g.......#..R....
 103f4 23aea752 67800000 b7170100 83a78753  #..Rg..........S
 10404 63980702 b7170100 13071000 23ace752  c...........#..R
 10414 b7170100 93870754 37170000 13070780  .......T7.......
 10424 3387e700 23a00700 93874700 e39ce7fe  3...#.....G.....
 10434 635ca00a 13074500 93777700 63880700  c\....E..ww.c...
 10444 93c7f7ff 33f7e700 13078700 9357f741  ....3........W.A
 10454 93f77700 b387e700 93d73740 b7160000  ..w.......7@....
 10464 6358d708 93972700 b7160100 93860654  cX....'........T
 10474 b387d700 83a60700 638e0600 83a60700  ........c.......
 10484 03a60600 23a0c700 23a0e600 13854600  ....#...#.....F.
 10494 67800000 93162700 b386e600 93961600  g.....'.........
 104a4 13063006 6348d600 93064006 b3c6e602  ..0.cH....@.....
 104b4 b386e602 37160100 8325c653 b386d500  ....7....%.S....
 104c4 232ed652 3305e040 b386e640 e3e8b6fa  #..R3..@...@....
 104d4 03a60700 23a0c600 23a0d700 b386a600  ....#...#.......
 104e4 e3f8b6fe 6ff09ff9 13050000 67800000  ....o.......g...
 104f4 13050000 67800000 0327c5ff 9357f741  ....g....'...W.A
 10504 93f77700 b387e700 93d73740 93972700  ..w.......7@..'.
 10514 37170100 13070754 b387e700 03a70700  7......T........
 10524 232ee5fe 1305c5ff 23a0a700 67800000  #.......#...g...
Contents of section .rodata:
 10534 0a00                                 ..              
Contents of section .comment:
 0000 4743433a 20286731 65613937 38653330  GCC: (g1ea978e30
 0010 36362920 31322e31 2e3000             66) 12.1.0.     
Contents of section .riscv.attributes:
 0000 41200000 00726973 63760001 16000000  A ...riscv......
 0010 04100572 76333269 3270305f 6d327030  ...rv32i2p0_m2p0
 0020 00                                   .               
Contents of section .debug_aranges:
 0000 1c000000 02000000 00000400 00000000  ................
 0010 94000100 cc000000 00000000 00000000  ................
 0020 1c000000 0200a801 00000400 00000000  ................
 0030 60010100 d4030000 00000000 00000000  `...............
Contents of section .debug_info:
 0000 a4010000 05000104 00000000 0a460700  .............F..
 0010 001d0000 00001800 00009400 0100cc00  ................
 0020 00000000 00000000 00000b48 1d000002  ...........H....
 0030 0d063c00 0000023c 00000000 03480000  ..<....<.....H..
 0040 00060108 df090000 0c410000 000d9814  .........A......
 0050 00000210 05680000 00680000 00026f00  .....h...h....o.
 0060 00000274 00000000 0e040569 6e740003  ...t.......int..
 0070 41000000 06040780 1700000f 14260000  A............&..
 0080 01040568 00000094 000100cc 00000001  ...h............
 0090 9c800100 0007d922 00000e68 0000000c  ......."...h....
 00a0 00000007 13240000 1a800100 00260000  .....$.......&..
 00b0 00085926 00000508 85010000 02915c08  ..Y&..........\.
 00c0 aa0c0000 06079501 00000391 986c0173  .............l.s
 00d0 756d000e 10740000 00590000 00100c00  um...t...Y......
 00e0 00000701 00000169 00080c68 00000070  .......i...h...p
 00f0 00000011 1f000000 016a0009 0e680000  .........j...h..
 0100 007d0000 00000012 ec000100 20000000  .}.......... ...
 0110 36010000 13690001 0f0c6800 000014f4  6....i....h.....
 0120 00010018 00000001 6a00100e 68000000  ........j...h...
 0130 8a000000 00000928 0101004d 00000051  .......(...M...Q
 0140 01000004 015a0991 00780022 0a24101c  .....Z...x.".$..
 0150 00093801 01002a00 00006c01 00000401  ..8...*...l.....
 0160 5a099100 7800220a 24101c00 15480101  Z...x.".$....H..
 0170 002a0000 0004015a 05033405 01000000  .*.....Z..4.....
 0180 036f0000 00164100 00009501 00000574  .o....A........t
 0190 00000013 00176800 00000574 00000018  ......h....t....
 01a0 05740000 00180000 0c050000 05000104  .t..............
 01b0 2d010000 10460700 001d7600 00001800  -....F....v.....
 01c0 00006001 0100d403 00005201 00007207  ..`.......R...r.
 01d0 00001176 70000188 0f350000 00120413  ...vp....5......
 01e0 2a000000 48000000 14480000 00ff0100  *...H....H......
 01f0 0c040780 17000009 9a250000 89043700  .........%....7.
 0200 00000503 40150100 09d92500 008a042a  ....@.....%....*
 0210 00000005 033c1501 00095725 00008b05  .....<....W%....
 0220 82000000 05033815 01001504 05696e74  ......8......int
 0230 00161426 0000010d 0c820000 00a40000  ...&............
 0240 000d8200 00000da4 00000000 05b00000  ................
 0250 000c0108 df090000 17a90000 00044126  ..............A&
 0260 0000c1fc 04010038 00000001 9c140100  .......8........
 0270 00015025 0000c114 35000000 a3000000  ..P%....5.......
 0280 02382500 00c20914 010000bc 00000002  .8%.............
 0290 73260000 c4078200 0000d500 0000026f  s&.............o
 02a0 260000c5 07820000 00e20000 00187826  &.............x&
 02b0 000001c6 07190100 00015f00 05a90000  .........._.....
 02c0 00052a00 000003af 26000092 07350000  ..*.....&....5..
 02d0 00fc0301 00000100 00019cee 01000001  ................
 02e0 73260000 92148200 0000f300 00000223  s&.............#
 02f0 2600009c 07820000 00460100 00026f26  &........F....o&
 0300 0000a007 82000000 c3010000 02782600  .............x&.
 0310 00a60719 010000f0 01000002 63250000  ............c%..
 0320 ba071901 0000fc01 00001914 04010020  ............... 
 0330 0000009d 01000006 6a00950e 82000000  ........j.......
 0340 08020000 000a9804 01005400 000002b8  ..........T.....
 0350 250000a9 09820000 00150200 00023825  %.............8%
 0360 0000ae0b 14010000 40020000 02342500  ........@....4%.
 0370 00af0b14 0100004c 0200000a ac040100  .......L........
 0380 0c000000 02e42500 00ab0b82 00000058  ......%........X
 0390 02000000 000004ef 2500008d e8030100  ........%.......
 03a0 14000000 019c1002 00000e29 2500008d  ...........)%...
 03b0 16350000 00015a00 03981400 00690582  .5....Z......i..
 03c0 00000074 03010074 00000001 9c7f0200  ...t...t........
 03d0 00015926 00006916 14010000 74020000  ..Y&..i.....t...
 03e0 0776616c 00692b48 000000a1 02000006  .val.i+H........
 03f0 70747200 70091401 0000b802 00000249  ptr.p..........I
 0400 25000076 07820000 00cf0200 000ab403  %..v............
 0410 01001800 00000674 6d700079 0aa90000  .......tmp.y....
 0420 00db0200 00000003 3e250000 610e4800  ........>%..a.H.
 0430 00003803 01003c00 0000019c b5020000  ..8...<.........
 0440 07737472 006125a4 000000f3 0200000f  .str.a%.........
 0450 76616c00 62104800 0000015a 00047b25  val.b.H....Z..{%
 0460 000054a8 02010090 00000001 9c070300  ..T.............
 0470 00015926 00005418 14010000 0a030000  ..Y&..T.........
 0480 01902500 00542482 00000021 03000006  ..%..T$....!....
 0490 63005507 82000000 53030000 0bd00201  c.U.....S.......
 04a0 00920400 000b0803 01009204 00000004  ................
 04b0 481d0000 506c0201 003c0000 00019c32  H...Pl...<.....2
 04c0 03000007 7000501f a4000000 6a030000  ....p.P.....j...
 04d0 0b900201 00700400 0000031e 25000047  .....p......%..G
 04e0 05820000 00540201 00180000 00019c65  .....T.........e
 04f0 03000001 24250000 47148200 00008103  ....$%..G.......
 0500 00000849 25000048 82000000 0003ae25  ...I%..H.......%
 0510 00003e05 82000000 34020100 20000000  ..>.....4... ...
 0520 019ca703 00000119 2500003e 15140100  ........%..>....
 0530 00a60300 00016926 00003e21 14010000  ......i&..>!....
 0540 bd030000 08492500 003f8200 00000003  .....I%..?......
 0550 c8250000 34058200 00000c02 01002800  .%..4.........(.
 0560 0000019c f8030000 01242500 00341a82  .........$%..4..
 0570 000000e2 03000001 59260000 3425f803  ........Y&..4%..
 0580 0000f903 00000173 26000034 31820000  .......s&..41...
 0590 00100400 00084925 00003582 00000000  ......I%..5.....
 05a0 05820000 00035026 00002a05 82000000  ......P&..*.....
 05b0 e4010100 28000000 019c4e04 00000124  ....(.....N....$
 05c0 2500002a 19820000 00350400 00015926  %..*.....5....Y&
 05d0 00002a24 f8030000 4c040000 01602600  ..*$....L....`&.
 05e0 002a3082 00000063 04000008 49250000  .*0....c....I%..
 05f0 2b820000 00000419 26000023 d4010100  +.......&..#....
 0600 10000000 019c7004 00000e49 26000023  ......p....I&..#
 0610 14820000 00015a00 04c32500 001dc001  ......Z...%.....
 0620 01001400 0000019c 92040000 0763001d  .............c..
 0630 10a90000 00880400 00001a69 6e700001  ...........inp..
 0640 1506a900 0000ac01 01001400 0000019c  ................
 0650 b8040000 0f630016 08a90000 00015a00  .....c........Z.
 0660 1b0c2600 00010f05 82000000 88010100  ..&.............
 0670 24000000 019c0187 2500000f 17f80300  $.......%.......
 0680 00a20400 0002d922 00001007 82000000  ......."........
 0690 c9040000 02132400 00110fa4 000000e1  ......$.........
 06a0 0400001c a0010100 89000000 1d015b05  ..............[.
 06b0 a3015a23 04000000                    ..Z#....        
Contents of section .debug_abbrev:
 0000 01340003 083a2101 3b0b390b 49130217  .4...:!.;.9.I...
 0010 00000205 00491300 00030f00 0b210449  .....I.......!.I
 0020 13000004 49000218 7e180000 05210049  ....I...~....!.I
 0030 132f0b00 00062400 0b0b3e0b 030e0000  ./....$...>.....
 0040 07050003 0e3a2101 3b210439 0b491302  .....:!.;!.9.I..
 0050 17000008 3400030e 3a21013b 0b390b49  ....4...:!.;.9.I
 0060 13021800 00094801 7d017f13 01130000  ......H.}.......
 0070 0a110125 0e130b03 1f1b1f11 01120610  ...%............
 0080 17791700 000b2e01 3f19030e 3a0b3b0b  .y......?...:.;.
 0090 390b2719 3c190113 00000c26 00491300  9.'.<......&.I..
 00a0 000d2e01 3f19030e 3a0b3b0b 390b2719  ....?...:.;.9.'.
 00b0 49133c19 01130000 0e24000b 0b3e0b03  I.<......$...>..
 00c0 0800000f 2e013f19 030e3a0b 3b0b390b  ......?...:.;.9.
 00d0 27194913 11011206 40187a19 01130000  '.I.....@.z.....
 00e0 100b0155 17011300 00110b01 55170000  ...U........U...
 00f0 120b0111 01120601 13000013 34000308  ............4...
 0100 3a0b3b0b 390b4913 0000140b 01110112  :.;.9.I.........
 0110 06000015 48017d01 7f130000 16010149  ....H.}........I
 0120 13011300 00170101 49130000 00010500  ........I.......
 0130 030e3a21 013b0b39 0b491302 17000002  ..:!.;.9.I......
 0140 3400030e 3a21013b 0b390b49 13021700  4...:!.;.9.I....
 0150 00032e01 3f19030e 3a21013b 0b390b27  ....?...:!.;.9.'
 0160 19491311 01120640 187a1901 13000004  .I.....@.z......
 0170 2e013f19 030e3a21 013b0b39 21062719  ..?...:!.;.9!.'.
 0180 11011206 40187a19 01130000 050f000b  ....@.z.........
 0190 21044913 00000634 0003083a 21013b0b  !.I....4...:!.;.
 01a0 390b4913 02170000 07050003 083a2101  9.I..........:!.
 01b0 3b0b390b 49130217 00000834 00030e3a  ;.9.I......4...:
 01c0 21013b0b 39210749 13000009 3400030e  !.;.9!.I....4...
 01d0 3a21013b 0b390b49 133f1902 1800000a  :!.;.9.I.?......
 01e0 0b011101 12060000 0b48007d 017f1300  .........H.}....
 01f0 000c2400 0b0b3e0b 030e0000 0d050049  ..$...>........I
 0200 1300000e 0500030e 3a21013b 0b390b49  ........:!.;.9.I
 0210 13021800 000f3400 03083a21 013b0b39  ......4...:!.;.9
 0220 0b491302 18000010 1101250e 130b031f  .I........%.....
 0230 1b1f1101 12061017 79170000 11160003  ........y.......
 0240 083a0b3b 0b390b49 13000012 0f000b0b  .:.;.9.I........
 0250 00001301 01491301 13000014 21004913  .....I......!.I.
 0260 2f050000 1524000b 0b3e0b03 08000016  /....$...>......
 0270 2e013f19 030e3a0b 3b0b390b 27194913  ..?...:.;.9.'.I.
 0280 3c190113 00001726 00491300 00183400  <......&.I....4.
 0290 030e3a0b 3b0b390b 49130218 0000190b  ..:.;.9.I.......
 02a0 01110112 06011300 001a2e01 3f190308  ............?...
 02b0 3a0b3b0b 390b4913 11011206 40187a19  :.;.9.I.....@.z.
 02c0 01130000 1b2e013f 19030e3a 0b3b0b39  .......?...:.;.9
 02d0 0b271949 13110112 0640187a 1900001c  .'.I.....@.z....
 02e0 48017d01 7f130000 1d490002 187e1800  H.}......I...~..
 02f0 0000                                 ..              
Contents of section .debug_line:
 0000 4e010000 05000400 2f000000 010101fb  N......./.......
 0010 0e0d0001 01010100 00000100 00010101  ................
 0020 1f011800 00000201 1f020f03 00000000  ................
 0030 00000000 00007000 00000005 22000502  ......p....."...
 0040 94000100 15050303 01091000 01030109  ................
 0050 00000103 02090000 01050803 00090000  ................
 0060 01051503 00090000 01052206 037c0920  .........."..|. 
 0070 00010514 03060904 0001051c 00020402  ................
 0080 06037e09 08000105 15000204 02030009  ..~.............
 0090 00000105 17030109 08000105 07000204  ................
 00a0 03030109 04000105 14000204 03060300  ................
 00b0 09000001 051e0002 04030603 7f090400  ................
 00c0 01051700 02040303 00090000 01051c00  ................
 00d0 02040203 06090c00 01051500 02040203  ................
 00e0 00090000 01051703 01090800 01050700  ................
 00f0 02040303 01090400 01050b00 02040306  ................
 0100 03000900 0001051e 00020403 06037f09  ................
 0110 08000105 17000204 03030009 00000105  ................
 0120 1006037e 090c0001 05030603 07090800  ...~............
 0130 01030109 14000103 01091000 01030109  ................
 0140 10000105 01060301 09000001 09180000  ................
 0150 0101ca07 00000500 04002f00 00000101  ........../.....
 0160 01fb0e0d 00010101 01000000 01000001  ................
 0170 01011f01 18000000 02011f02 0f037600  ..............v.
 0180 00000076 00000000 70000000 00052100  ...v....p.....!.
 0190 05028801 0100030e 01050303 01090800  ................
 01a0 01030109 00000103 01090000 01050a06  ................
 01b0 03000900 00010501 03010910 0001050c  ................
 01c0 06030209 0c000105 03030109 00000103  ................
 01d0 01090000 01030109 04000103 01090400  ................
 01e0 01030109 04000105 01060301 09000001  ................
 01f0 05130603 02090800 01050303 01090400  ................
 0200 01030109 04000103 01090400 01050106  ................
 0210 03010904 0001051c 06030209 04000105  ................
 0220 03030109 00000103 01090400 01030109  ................
 0230 04000105 01060302 09040001 053a0603  .............:..
 0240 02090400 01050303 01090c00 01030109  ................
 0250 00000103 01090400 01030109 04000103  ................
 0260 01090400 01030109 04000103 01090400  ................
 0270 01050106 03010904 00010537 06030209  ...........7....
 0280 04000105 03030109 0c000103 01090000  ................
 0290 01030109 04000103 01090400 01030109  ................
 02a0 04000103 01090400 01030109 04000105  ................
 02b0 01060301 09040001 05280603 02090400  .........(......
 02c0 01050303 01090800 01030109 00000103  ................
 02d0 01090400 01030109 04000103 01090400  ................
 02e0 01030109 04000105 01060301 09040001  ................
 02f0 051a0603 02090400 01050303 01090400  ................
 0300 01030109 00000103 01090400 01030109  ................
 0310 04000103 01090400 01050106 03010904  ................
 0320 00010522 06030309 04000105 03030109  ..."............
 0330 10000105 0a030009 00000105 10000204  ................
 0340 02030009 08000105 17000204 02060300  ................
 0350 09000001 05100002 04020300 09040001  ................
 0360 050a0002 04020603 00090800 01050106  ................
 0370 03010908 0001052f 06030209 10000105  ......./........
 0380 03030109 20000105 0b060300 09000001  .... ...........
 0390 05030603 01090800 01052103 00090000  ..........!.....
 03a0 01051406 03000908 00010521 03000908  ...........!....
 03b0 00010514 03000914 00010505 06030109  ................
 03c0 04000105 0c060300 09000001 050f0300  ................
 03d0 09040001 05050603 01090400 01030109  ................
 03e0 00000105 09060300 09000001 05210603  .............!..
 03f0 7d090800 01051400 02040106 03000904  }...............
 0400 00010521 00020402 03000904 0001050c  ...!............
 0410 03010904 00010503 06030509 04000105  ................
 0420 0b060300 09000001 05010301 09040001  ................
 0430 052a0603 04091c00 01050303 01090400  .*..............
 0440 01051a06 03000900 00010516 03000904  ................
 0450 0001051d 03000904 00010503 06030109  ................
 0460 04000105 0a030009 00000105 05030109  ................
 0470 08000105 1a060300 09000001 050f0300  ................
 0480 09040001 05140300 090c0001 05090300  ................
 0490 09040001 050a0603 7f090400 01050106  ................
 04a0 03040908 00010530 06030209 04000105  .......0........
 04b0 03030109 04000105 09060306 09000001  ................
 04c0 05130302 09040001 050a037f 09040001  ................
 04d0 05060379 09040001 05050603 08090400  ...y............
 04e0 01050906 03000904 00010513 03000904  ................
 04f0 00010519 03000904 0001050c 03000904  ................
 0500 00010505 06030109 04000105 09060300  ................
 0510 09040001 050a0603 7e090400 01050303  ........~.......
 0520 04090400 01050a06 03000900 00010503  ................
 0530 06030109 04000105 07060300 09000001  ................
 0540 05030603 02090400 01050e03 00090000  ................
 0550 01050503 01090400 01050a06 03000900  ................
 0560 00010505 06030109 04000105 0c060300  ................
 0570 09000001 050a0300 09040001 05050603  ................
 0580 01090400 01050d06 03000900 00010505  ................
 0590 06030109 04000103 01090400 01050e03  ................
 05a0 7b090400 01050106 03080904 00010505  {...............
 05b0 06036b09 04000105 0f060300 09000001  ..k.............
 05c0 05050603 01090800 01050f06 03000900  ................
 05d0 00010505 06030109 04000105 0c060300  ................
 05e0 09000001 05220603 20090800 01050303  .....".. .......
 05f0 01090000 01050f06 03000900 00010503  ................
 0600 06030109 08000105 0e060300 09000001  ................
 0610 05010301 09080001 051a0603 02090400  ................
 0620 01050303 01090000 01050706 03000900  ................
 0630 00010506 03000904 00010505 06030109  ................
 0640 08000105 11060300 09000001 05050603  ................
 0650 01090c00 01050a03 00090000 01051703  ................
 0660 00090000 01052900 02040303 00091400  ......).........
 0670 01054000 02040306 03000900 00010525  ..@............%
 0680 00020403 06030009 04000105 17000204  ................
 0690 03030009 00000105 03030209 08000105  ................
 06a0 06060300 09000001 05030603 03090400  ................
 06b0 01050806 03000900 00010503 06030209  ................
 06c0 04000105 07060300 09000001 05030603  ................
 06d0 01090400 01050606 03000900 00010505  ................
 06e0 06030109 04000105 14060300 09000001  ................
 06f0 05120300 09040001 050a0300 09040001  ................
 0700 05030603 02090400 01050706 03000900  ................
 0710 00010503 06030109 10000105 06060300  ................
 0720 09000001 05030603 05090800 01052406  ..............$.
 0730 03000900 00010507 03000904 00010503  ................
 0740 06030109 0c000105 06060300 09000001  ................
 0750 05030603 13090800 01050706 03000900  ................
 0760 00010503 06030109 04000105 0d060300  ................
 0770 09000001 050b0300 09040001 05030603  ................
 0780 02090400 01050a06 03000900 00010503  ................
 0790 06030109 04000105 10060300 09000001  ................
 07a0 05050603 6b090800 01050906 03000900  ....k...........
 07b0 00010505 06030109 0c000105 08060300  ................
 07c0 09000001 05070603 01090800 01030109  ................
 07d0 00000105 0b06037f 09000001 05120301  ................
 07e0 09080001 05050603 02090400 01050b06  ................
 07f0 03000900 00010505 06030109 08000105  ................
 0800 0b060300 09000001 05050603 01090400  ................
 0810 01051006 03000900 00010505 06030209  ................
 0820 04000105 0f060300 09000001 05050603  ................
 0830 01090800 01051603 00090000 01050703  ................
 0840 01090400 01051906 03000900 00010517  ................
 0850 03000904 00010507 06030109 04000105  ................
 0860 0f060300 09000001 05070603 01090400  ................
 0870 01051106 03000900 00010516 06037d09  ..............}.
 0880 04000105 18060364 09080001 050c030d  .......d........
 0890 09080001 0501031b 09040001 051c0603  ................
 08a0 02090400 01050303 01090000 01030109  ................
 08b0 00000103 01090000 01030109 00000103  ................
 08c0 01090000 01050706 037f0900 00010524  ...............$
 08d0 03010914 00010507 03000904 00010503  ................
 08e0 06030109 0c000105 11060300 09000001  ................
 08f0 050f0300 09040001 05030603 01090400  ................
 0900 01050906 037b0900 0001050b 03050904  .....{..........
 0910 00010501 03010904 00010904 00000101  ................
Contents of section .debug_frame:
 0000 0c000000 ffffffff 0300017c 010d0200  ...........|....
 0010 24000000 00000000 94000100 cc000000  $...............
 0020 440ef00f 4c0ef013 81018802 02ac0ef0  D...L...........
 0030 0f44c144 c8440e00 0c000000 ffffffff  .D.D.D..........
 0040 0300017c 010d0200 18000000 38000000  ...|........8...
 0050 88010100 24000000 440e1044 810154c1  ....$...D..D..T.
 0060 440e0000 0c000000 38000000 ac010100  D.......8.......
 0070 14000000 0c000000 38000000 c0010100  ........8.......
 0080 14000000 0c000000 38000000 d4010100  ........8.......
 0090 10000000 0c000000 38000000 e4010100  ........8.......
 00a0 28000000 0c000000 38000000 0c020100  (.......8.......
 00b0 28000000 0c000000 38000000 34020100  (.......8...4...
 00c0 20000000 0c000000 38000000 54020100   .......8...T...
 00d0 18000000 1c000000 38000000 6c020100  ........8...l...
 00e0 3c000000 440e1048 81018802 64c144c8  <...D..H....d.D.
 00f0 440e0000 28000000 38000000 a8020100  D...(...8.......
 0100 90000000 440e2054 81018802 89039204  ....D. T........
 0110 93050260 c144c844 c944d244 d3440e00  ...`.D.D.D.D.D..
 0120 0c000000 38000000 38030100 3c000000  ....8...8...<...
 0130 0c000000 38000000 74030100 74000000  ....8...t...t...
 0140 0c000000 38000000 e8030100 14000000  ....8...........
 0150 0c000000 38000000 fc030100 00010000  ....8...........
 0160 0c000000 38000000 fc040100 38000000  ....8.......8...
Contents of section .debug_str:
 0000 5f5f5549 4e545f46 41535438 5f4d4158  __UINT_FAST8_MAX
 0010 5f5f2030 78666666 66666666 6655005f  __ 0xffffffffU._
 0020 5f464c54 36345f48 41535f44 454e4f52  _FLT64_HAS_DENOR
 0030 4d5f5f20 31005f5f 494e545f 46415354  M__ 1.__INT_FAST
 0040 33325f57 49445448 5f5f2033 32005f5f  32_WIDTH__ 32.__
 0050 494e5431 365f4328 63292063 005f5f46  INT16_C(c) c.__F
 0060 4c543332 5f444947 5f5f2036 005f5f55  LT32_DIG__ 6.__U
 0070 494e5436 345f4328 63292063 20232320  INT64_C(c) c ## 
 0080 554c4c00 5f5f5349 5a454f46 5f53495a  ULL.__SIZEOF_SIZ
 0090 455f545f 5f203400 5f5f464c 545f4953  E_T__ 4.__FLT_IS
 00a0 5f494543 5f363035 35395f5f 2032005f  _IEC_60559__ 2._
 00b0 5f464c54 3132385f 45505349 4c4f4e5f  _FLT128_EPSILON_
 00c0 5f20312e 39323539 32393934 34333837  _ 1.925929944387
 00d0 32333538 35333035 35393737 39343235  2358530559779425
 00e0 38343932 37333265 2d333446 31323800  8492732e-34F128.
 00f0 5f5f464c 545f4550 53494c4f 4e5f5f20  __FLT_EPSILON__ 
 0100 312e3139 32303932 38393535 30373831  1.19209289550781
 0110 32353030 30303030 30303030 30303030  2500000000000000
 0120 30303030 30652d37 46005f5f 494e5436  00000e-7F.__INT6
 0130 345f4328 63292063 20232320 4c4c005f  4_C(c) c ## LL._
 0140 5f53495a 454f465f 504f494e 5445525f  _SIZEOF_POINTER_
 0150 5f203400 5f5f5549 4e545f4c 45415354  _ 4.__UINT_LEAST
 0160 33325f54 5950455f 5f206c6f 6e672075  32_TYPE__ long u
 0170 6e736967 6e656420 696e7400 5f5f464c  nsigned int.__FL
 0180 54333258 5f4d4158 5f5f2031 2e373937  T32X_MAX__ 1.797
 0190 36393331 33343836 32333135 37303831  6931348623157081
 01a0 34353237 34323337 33313730 34333537  4527423731704357
 01b0 652b3330 38463332 78005f5f 57434841  e+308F32x.__WCHA
 01c0 525f5749 4454485f 5f203332 005f5f47  R_WIDTH__ 32.__G
 01d0 43435f41 544f4d49 435f4c4c 4f4e475f  CC_ATOMIC_LLONG_
 01e0 4c4f434b 5f465245 45203100 5f5f5549  LOCK_FREE 1.__UI
 01f0 4e544d41 585f4328 63292063 20232320  NTMAX_C(c) c ## 
 0200 554c4c00 5f5f494e 545f4641 5354385f  ULL.__INT_FAST8_
 0210 4d41585f 5f203078 37666666 66666666  MAX__ 0x7fffffff
 0220 005f5f55 494e5436 345f5459 50455f5f  .__UINT64_TYPE__
 0230 206c6f6e 67206c6f 6e672075 6e736967   long long unsig
 0240 6e656420 696e7400 5f5f7269 7363765f  ned int.__riscv_
 0250 61726368 5f746573 74203100 5f5f7269  arch_test 1.__ri
 0260 7363765f 6d203230 30303030 30005f5f  scv_m 2000000.__
 0270 464c5433 32585f4d 41585f45 58505f5f  FLT32X_MAX_EXP__
 0280 20313032 34005f5f 4c44424c 5f4d4158   1024.__LDBL_MAX
 0290 5f31305f 4558505f 5f203439 3332005f  _10_EXP__ 4932._
 02a0 5f474343 5f41544f 4d49435f 43484152  _GCC_ATOMIC_CHAR
 02b0 33325f54 5f4c4f43 4b5f4652 45452031  32_T_LOCK_FREE 1
 02c0 005f5f41 544f4d49 435f5345 515f4353  .__ATOMIC_SEQ_CS
 02d0 54203500 5f5f464c 5436345f 4d41585f  T 5.__FLT64_MAX_
 02e0 5f20312e 37393736 39333133 34383632  _ 1.797693134862
 02f0 33313537 30383134 35323734 32333733  3157081452742373
 0300 31373034 33353765 2b333038 46363400  1704357e+308F64.
 0310 5f5f5349 5a454f46 5f57494e 545f545f  __SIZEOF_WINT_T_
 0320 5f203400 5f5f4442 4c5f4d41 585f3130  _ 4.__DBL_MAX_10
 0330 5f455850 5f5f2033 3038005f 5f464c54  _EXP__ 308.__FLT
 0340 36345f4d 494e5f5f 20322e32 32353037  64_MIN__ 2.22507
 0350 33383538 35303732 30313338 33303930  3858507201383090
 0360 32333237 31373333 32343034 3036652d  23271733240406e-
 0370 33303846 3634005f 5f4c4442 4c5f4d49  308F64.__LDBL_MI
 0380 4e5f5f20 332e3336 32313033 31343331  N__ 3.3621031431
 0390 31323039 33353036 32363236 37373831  1209350626267781
 03a0 37333231 37353236 30652d34 3933324c  732175260e-4932L
 03b0 005f5f49 4e545f4c 45415354 33325f57  .__INT_LEAST32_W
 03c0 49445448 5f5f2033 32005f5f 43484152  IDTH__ 32.__CHAR
 03d0 33325f54 5950455f 5f206c6f 6e672075  32_TYPE__ long u
 03e0 6e736967 6e656420 696e7400 5f5f4c44  nsigned int.__LD
 03f0 424c5f4d 414e545f 4449475f 5f203131  BL_MANT_DIG__ 11
 0400 33005f5f 4c44424c 5f444947 5f5f2033  3.__LDBL_DIG__ 3
 0410 33005f5f 43484152 5f424954 5f5f2038  3.__CHAR_BIT__ 8
 0420 005f5f44 424c5f48 41535f49 4e46494e  .__DBL_HAS_INFIN
 0430 4954595f 5f203100 5f5f5354 44435f56  ITY__ 1.__STDC_V
 0440 45525349 4f4e5f5f 20323031 3731304c  ERSION__ 201710L
 0450 005f5f46 4c543332 585f4e4f 524d5f4d  .__FLT32X_NORM_M
 0460 41585f5f 20312e37 39373639 33313334  AX__ 1.797693134
 0470 38363233 31353730 38313435 32373432  8623157081452742
 0480 33373331 37303433 3537652b 33303846  3731704357e+308F
 0490 33327800 5f5f464c 54333258 5f4d494e  32x.__FLT32X_MIN
 04a0 5f31305f 4558505f 5f20282d 33303729  _10_EXP__ (-307)
 04b0 005f5f46 4c543332 585f4550 53494c4f  .__FLT32X_EPSILO
 04c0 4e5f5f20 322e3232 30343436 30343932  N__ 2.2204460492
 04d0 35303331 33303830 38343732 36333333  5031308084726333
 04e0 36313831 36343036 32652d31 36463332  618164062e-16F32
 04f0 78005f5f 464c5436 34585f48 41535f44  x.__FLT64X_HAS_D
 0500 454e4f52 4d5f5f20 31005f5f 53544443  ENORM__ 1.__STDC
 0510 5f484f53 5445445f 5f203100 5f5f464c  _HOSTED__ 1.__FL
 0520 545f4556 414c5f4d 4554484f 445f5453  T_EVAL_METHOD_TS
 0530 5f313836 36315f33 5f5f2030 005f5f46  _18661_3__ 0.__F
 0540 4c543634 5f455053 494c4f4e 5f5f2032  LT64_EPSILON__ 2
 0550 2e323230 34343630 34393235 30333133  .220446049250313
 0560 30383038 34373236 33333336 31383136  0808472633361816
 0570 34303632 652d3136 46363400 5f5f7269  4062e-16F64.__ri
 0580 7363765f 636d6f64 656c5f6d 65646c6f  scv_cmodel_medlo
 0590 77203100 5f5f4758 585f4142 495f5645  w 1.__GXX_ABI_VE
 05a0 5253494f 4e203130 3137005f 5f464c54  RSION 1017.__FLT
 05b0 3634585f 4d494e5f 31305f45 58505f5f  64X_MIN_10_EXP__
 05c0 20282d34 39333129 005f5f46 4c543634   (-4931).__FLT64
 05d0 585f4445 43494d41 4c5f4449 475f5f20  X_DECIMAL_DIG__ 
 05e0 3336005f 5f57494e 545f4d41 585f5f20  36.__WINT_MAX__ 
 05f0 30786666 66666666 66665500 5f5f5349  0xffffffffU.__SI
 0600 5a455f54 5950455f 5f20756e 7369676e  ZE_TYPE__ unsign
 0610 65642069 6e74005f 5f464c54 36345f48  ed int.__FLT64_H
 0620 41535f51 55494554 5f4e414e 5f5f2031  AS_QUIET_NAN__ 1
 0630 005f5f46 4c543332 5f484153 5f44454e  .__FLT32_HAS_DEN
 0640 4f524d5f 5f203100 5f5f5343 4841525f  ORM__ 1.__SCHAR_
 0650 57494454 485f5f20 38005f5f 464c5433  WIDTH__ 8.__FLT3
 0660 32585f49 535f4945 435f3630 3535395f  2X_IS_IEC_60559_
 0670 5f203200 5f5f4442 4c5f4d41 4e545f44  _ 2.__DBL_MANT_D
 0680 49475f5f 20353300 5f5f5549 4e545f4c  IG__ 53.__UINT_L
 0690 45415354 36345f54 5950455f 5f206c6f  EAST64_TYPE__ lo
 06a0 6e67206c 6f6e6720 756e7369 676e6564  ng long unsigned
 06b0 20696e74 005f5f44 424c5f4d 494e5f5f   int.__DBL_MIN__
 06c0 20282864 6f75626c 6529322e 32323530   ((double)2.2250
 06d0 37333835 38353037 32303133 38333039  7385850720138309
 06e0 30323332 37313733 33323430 34303665  023271733240406e
 06f0 2d333038 4c29005f 5f494e54 5054525f  -308L).__INTPTR_
 0700 54595045 5f5f2069 6e74005f 5f494e54  TYPE__ int.__INT
 0710 5f4c4541 53543634 5f4d4158 5f5f2030  _LEAST64_MAX__ 0
 0720 78376666 66666666 66666666 66666666  x7ffffffffffffff
 0730 664c4c00 5f5f5348 52545f57 49445448  fLL.__SHRT_WIDTH
 0740 5f5f2031 3600474e 55204331 37203132  __ 16.GNU C17 12
 0750 2e312e30 202d6d61 62693d69 6c703332  .1.0 -mabi=ilp32
 0760 202d6d6e 6f2d7265 6c617820 2d6d7475   -mno-relax -mtu
 0770 6e653d72 6f636b65 74202d6d 6973612d  ne=rocket -misa-
 0780 73706563 3d322e32 202d6d61 7263683d  spec=2.2 -march=
 0790 72763332 696d202d 6733202d 4f31202d  rv32im -g3 -O1 -
 07a0 666e6f2d 74726565 2d6c6f6f 702d6469  fno-tree-loop-di
 07b0 73747269 62757465 2d706174 7465726e  stribute-pattern
 07c0 73005f5f 55494e54 385f5459 50455f5f  s.__UINT8_TYPE__
 07d0 20756e73 69676e65 64206368 6172005f   unsigned char._
 07e0 5f534947 5f41544f 4d49435f 54595045  _SIG_ATOMIC_TYPE
 07f0 5f5f2069 6e74005f 5f464c54 33325f4e  __ int.__FLT32_N
 0800 4f524d5f 4d41585f 5f20332e 34303238  ORM_MAX__ 3.4028
 0810 32333436 36333835 32383835 39383131  2346638528859811
 0820 37303431 38333438 34353136 39323565  704183484516925e
 0830 2b333846 3332005f 5f464c54 33325f4d  +38F32.__FLT32_M
 0840 41585f5f 20332e34 30323832 33343636  AX__ 3.402823466
 0850 33383532 38383539 38313137 30343138  3852885981170418
 0860 33343834 35313639 3235652b 33384633  3484516925e+38F3
 0870 32005f5f 4743435f 41544f4d 49435f57  2.__GCC_ATOMIC_W
 0880 43484152 5f545f4c 4f434b5f 46524545  CHAR_T_LOCK_FREE
 0890 2031005f 5f505241 474d415f 52454445   1.__PRAGMA_REDE
 08a0 46494e45 5f455854 4e414d45 2031005f  FINE_EXTNAME 1._
 08b0 5f494e54 5f4c4541 53543136 5f574944  _INT_LEAST16_WID
 08c0 54485f5f 20313600 5f5f4c44 424c5f4d  TH__ 16.__LDBL_M
 08d0 41585f5f 20312e31 38393733 31343935  AX__ 1.189731495
 08e0 33353732 33313736 35303835 37353933  3572317650857593
 08f0 32363632 38303037 3032652b 34393332  2662800702e+4932
 0900 4c005f5f 464c5433 325f4841 535f494e  L.__FLT32_HAS_IN
 0910 46494e49 54595f5f 2031005f 5f4c4442  FINITY__ 1.__LDB
 0920 4c5f4841 535f494e 46494e49 54595f5f  L_HAS_INFINITY__
 0930 2031005f 5f464c54 5f484153 5f44454e   1.__FLT_HAS_DEN
 0940 4f524d5f 5f203100 5f5f464c 54313238  ORM__ 1.__FLT128
 0950 5f4d494e 5f455850 5f5f2028 2d313633  _MIN_EXP__ (-163
 0960 38312900 5f5f5549 4e545f46 41535431  81).__UINT_FAST1
 0970 365f4d41 585f5f20 30786666 66666666  6_MAX__ 0xffffff
 0980 66665500 5f5f494e 54505452 5f4d4158  ffU.__INTPTR_MAX
 0990 5f5f2030 78376666 66666666 66005f5f  __ 0x7fffffff.__
 09a0 55494e54 31365f4d 41585f5f 20307866  UINT16_MAX__ 0xf
 09b0 66666600 5f5f7269 7363765f 7a696373  fff.__riscv_zics
 09c0 72203230 30303030 30005f5f 494e5438  r 2000000.__INT8
 09d0 5f545950 455f5f20 7369676e 65642063  _TYPE__ signed c
 09e0 68617200 5f5f4259 54455f4f 52444552  har.__BYTE_ORDER
 09f0 5f5f205f 5f4f5244 45525f4c 4954544c  __ __ORDER_LITTL
 0a00 455f454e 4449414e 5f5f005f 5f4c4f4e  E_ENDIAN__.__LON
 0a10 475f5749 4454485f 5f203332 005f5f44  G_WIDTH__ 32.__D
 0a20 424c5f4e 4f524d5f 4d41585f 5f202828  BL_NORM_MAX__ ((
 0a30 646f7562 6c652931 2e373937 36393331  double)1.7976931
 0a40 33343836 32333135 37303831 34353237  3486231570814527
 0a50 34323337 33313730 34333537 652b3330  423731704357e+30
 0a60 384c2900 5f5f464c 4f41545f 574f5244  8L).__FLOAT_WORD
 0a70 5f4f5244 45525f5f 205f5f4f 52444552  _ORDER__ __ORDER
 0a80 5f4c4954 544c455f 454e4449 414e5f5f  _LITTLE_ENDIAN__
 0a90 005f5f55 494e545f 4c454153 5431365f  .__UINT_LEAST16_
 0aa0 4d41585f 5f203078 66666666 005f5f49  MAX__ 0xffff.__I
 0ab0 4e543332 5f545950 455f5f20 6c6f6e67  NT32_TYPE__ long
 0ac0 20696e74 005f5f49 4e545f4c 45415354   int.__INT_LEAST
 0ad0 31365f54 5950455f 5f207368 6f727420  16_TYPE__ short 
 0ae0 696e7400 5f5f494e 545f4641 53543136  int.__INT_FAST16
 0af0 5f545950 455f5f20 696e7400 5f5f494e  _TYPE__ int.__IN
 0b00 544d4158 5f4d4158 5f5f2030 78376666  TMAX_MAX__ 0x7ff
 0b10 66666666 66666666 66666666 664c4c00  fffffffffffffLL.
 0b20 5f5f464c 545f4445 4e4f524d 5f4d494e  __FLT_DENORM_MIN
 0b30 5f5f2031 2e343031 32393834 36343332  __ 1.40129846432
 0b40 34383137 30373039 32333732 39353833  4817070923729583
 0b50 32383939 31363133 652d3435 46005f5f  28991613e-45F.__
 0b60 4c44424c 5f44454e 4f524d5f 4d494e5f  LDBL_DENORM_MIN_
 0b70 5f20362e 34373531 37353131 39343338  _ 6.475175119438
 0b80 30323531 31303932 34343338 39353832  0251109244389582
 0b90 32373634 36353565 2d343936 364c005f  2764655e-4966L._
 0ba0 5f53495a 454f465f 444f5542 4c455f5f  _SIZEOF_DOUBLE__
 0bb0 2038005f 5f454c46 5f5f2031 005f5f55   8.__ELF__ 1.__U
 0bc0 494e5438 5f4d4158 5f5f2030 78666600  INT8_MAX__ 0xff.
 0bd0 5f5f5349 5a455f4d 41585f5f 20307866  __SIZE_MAX__ 0xf
 0be0 66666666 66666655 005f5f47 43435f48  fffffffU.__GCC_H
 0bf0 4156455f 44574152 46325f43 46495f41  AVE_DWARF2_CFI_A
 0c00 534d2031 005f5f46 4c543332 5f4d4158  SM 1.__FLT32_MAX
 0c10 5f455850 5f5f2031 3238005f 5f494e54  _EXP__ 128.__INT
 0c20 33325f43 28632920 63202323 204c005f  32_C(c) c ## L._
 0c30 5f464c54 36345f4d 41585f45 58505f5f  _FLT64_MAX_EXP__
 0c40 20313032 34005f5f 494e5450 54525f57   1024.__INTPTR_W
 0c50 49445448 5f5f2033 32005f5f 53495a45  IDTH__ 32.__SIZE
 0c60 5f574944 54485f5f 20333200 5f5f464c  _WIDTH__ 32.__FL
 0c70 5433325f 45505349 4c4f4e5f 5f20312e  T32_EPSILON__ 1.
 0c80 31393230 39323839 35353037 38313235  1920928955078125
 0c90 30303030 30303030 30303030 30303030  0000000000000000
 0ca0 30303065 2d374633 32006d61 74726978  000e-7F32.matrix
 0cb0 005f5f55 494e544d 41585f54 5950455f  .__UINTMAX_TYPE_
 0cc0 5f206c6f 6e67206c 6f6e6720 756e7369  _ long long unsi
 0cd0 676e6564 20696e74 005f5f53 49475f41  gned int.__SIG_A
 0ce0 544f4d49 435f5749 4454485f 5f203332  TOMIC_WIDTH__ 32
 0cf0 005f5f55 494e545f 46415354 36345f4d  .__UINT_FAST64_M
 0d00 41585f5f 20307866 66666666 66666666  AX__ 0xfffffffff
 0d10 66666666 66666655 4c4c005f 5f494e54  fffffffULL.__INT
 0d20 385f4328 63292063 005f5f53 495a454f  8_C(c) c.__SIZEO
 0d30 465f4c4f 4e475f4c 4f4e475f 5f203800  F_LONG_LONG__ 8.
 0d40 5f5f464c 545f4449 475f5f20 36005f5f  __FLT_DIG__ 6.__
 0d50 4c44424c 5f455053 494c4f4e 5f5f2031  LDBL_EPSILON__ 1
 0d60 2e393235 39323939 34343338 37323335  .925929944387235
 0d70 38353330 35353937 37393432 35383439  8530559779425849
 0d80 32373332 652d3334 4c005f5f 44424c5f  2732e-34L.__DBL_
 0d90 44454e4f 524d5f4d 494e5f5f 20282864  DENORM_MIN__ ((d
 0da0 6f75626c 6529342e 39343036 35363435  ouble)4.94065645
 0db0 38343132 34363534 34313736 35363837  8412465441765687
 0dc0 39323836 38323231 33373265 2d333234  92868221372e-324
 0dd0 4c29005f 5f44424c 5f4d494e 5f455850  L).__DBL_MIN_EXP
 0de0 5f5f2028 2d313032 3129005f 5f464c54  __ (-1021).__FLT
 0df0 5f4d4158 5f31305f 4558505f 5f203338  _MAX_10_EXP__ 38
 0e00 005f5f57 494e545f 4d494e5f 5f203055  .__WINT_MIN__ 0U
 0e10 005f5f53 495a454f 465f4c4f 4e475f44  .__SIZEOF_LONG_D
 0e20 4f55424c 455f5f20 3136005f 5f534348  OUBLE__ 16.__SCH
 0e30 41525f4d 41585f5f 20307837 66005f5f  AR_MAX__ 0x7f.__
 0e40 474e5543 5f4d494e 4f525f5f 2031005f  GNUC_MINOR__ 1._
 0e50 5f55494e 5436345f 4d41585f 5f203078  _UINT64_MAX__ 0x
 0e60 66666666 66666666 66666666 66666666  ffffffffffffffff
 0e70 554c4c00 5f5f4442 4c5f4953 5f494543  ULL.__DBL_IS_IEC
 0e80 5f363035 35395f5f 2032005f 5f464c54  _60559__ 2.__FLT
 0e90 3634585f 4d494e5f 5f20332e 33363231  64X_MIN__ 3.3621
 0ea0 30333134 33313132 30393335 30363236  0314311209350626
 0eb0 32363737 38313733 32313735 32363065  267781732175260e
 0ec0 2d343933 32463634 78005f5f 4445435f  -4932F64x.__DEC_
 0ed0 4556414c 5f4d4554 484f445f 5f203200  EVAL_METHOD__ 2.
 0ee0 5f5f4c4f 4e475f4c 4f4e475f 4d41585f  __LONG_LONG_MAX_
 0ef0 5f203078 37666666 66666666 66666666  _ 0x7fffffffffff
 0f00 66666666 4c4c005f 5f464c54 33325f4d  ffffLL.__FLT32_M
 0f10 494e5f5f 20312e31 37353439 34333530  IN__ 1.175494350
 0f20 38323232 38373530 37393638 37333635  8222875079687365
 0f30 33373232 32323435 3638652d 33384633  3722224568e-38F3
 0f40 32005f5f 464c5431 32385f48 41535f49  2.__FLT128_HAS_I
 0f50 4e46494e 4954595f 5f203100 5f5f464c  NFINITY__ 1.__FL
 0f60 545f4841 535f5155 4945545f 4e414e5f  T_HAS_QUIET_NAN_
 0f70 5f203100 5f5f4c44 424c5f4d 494e5f45  _ 1.__LDBL_MIN_E
 0f80 58505f5f 20282d31 36333831 29005f5f  XP__ (-16381).__
 0f90 494e545f 46415354 31365f57 49445448  INT_FAST16_WIDTH
 0fa0 5f5f2033 32005f5f 464c5433 325f4d41  __ 32.__FLT32_MA
 0fb0 4e545f44 49475f5f 20323400 5f5f494e  NT_DIG__ 24.__IN
 0fc0 545f4641 5354385f 57494454 485f5f20  T_FAST8_WIDTH__ 
 0fd0 3332005f 5f494e54 36345f4d 41585f5f  32.__INT64_MAX__
 0fe0 20307837 66666666 66666666 66666666   0x7ffffffffffff
 0ff0 6666664c 4c005f5f 464c545f 4d494e5f  fffLL.__FLT_MIN_
 1000 4558505f 5f20282d 31323529 005f5f46  EXP__ (-125).__F
 1010 4c543332 585f4d49 4e5f5f20 322e3232  LT32X_MIN__ 2.22
 1020 35303733 38353835 30373230 31333833  5073858507201383
 1030 30393032 33323731 37333332 34303430  0902327173324040
 1040 36652d33 30384633 3278005f 5f464c54  6e-308F32x.__FLT
 1050 3634585f 4e4f524d 5f4d4158 5f5f2031  64X_NORM_MAX__ 1
 1060 2e313839 37333134 39353335 37323331  .189731495357231
 1070 37363530 38353735 39333236 36323830  7650857593266280
 1080 30373032 652b3439 33324636 3478005f  0702e+4932F64x._
 1090 5f444543 494d414c 5f444947 5f5f2033  _DECIMAL_DIG__ 3
 10a0 36005f5f 494e544d 41585f57 49445448  6.__INTMAX_WIDTH
 10b0 5f5f2036 34005f5f 4f524445 525f4249  __ 64.__ORDER_BI
 10c0 475f454e 4449414e 5f5f2034 33323100  G_ENDIAN__ 4321.
 10d0 5f5f4348 41523136 5f545950 455f5f20  __CHAR16_TYPE__ 
 10e0 73686f72 7420756e 7369676e 65642069  short unsigned i
 10f0 6e74005f 5f4c4442 4c5f4d49 4e5f3130  nt.__LDBL_MIN_10
 1100 5f455850 5f5f2028 2d343933 3129005f  _EXP__ (-4931)._
 1110 5f494e54 4d41585f 54595045 5f5f206c  _INTMAX_TYPE__ l
 1120 6f6e6720 6c6f6e67 20696e74 005f5f53  ong long int.__S
 1130 495a454f 465f5348 4f52545f 5f203200  IZEOF_SHORT__ 2.
 1140 5f5f464c 545f4d49 4e5f5f20 312e3137  __FLT_MIN__ 1.17
 1150 35343934 33353038 32323238 37353037  5494350822287507
 1160 39363837 33363533 37323232 32343536  9687365372222456
 1170 38652d33 3846005f 5f464c54 36345f48  8e-38F.__FLT64_H
 1180 41535f49 4e46494e 4954595f 5f203100  AS_INFINITY__ 1.
 1190 5f5f5549 4e545f4c 45415354 33325f4d  __UINT_LEAST32_M
 11a0 41585f5f 20307866 66666666 66666655  AX__ 0xffffffffU
 11b0 4c005f5f 464c5436 34585f48 41535f49  L.__FLT64X_HAS_I
 11c0 4e46494e 4954595f 5f203100 5f5f464c  NFINITY__ 1.__FL
 11d0 545f4d41 585f4558 505f5f20 31323800  T_MAX_EXP__ 128.
 11e0 5f5f7269 7363765f 7a696665 6e636569  __riscv_zifencei
 11f0 20323030 30303030 005f5f44 424c5f48   2000000.__DBL_H
 1200 41535f44 454e4f52 4d5f5f20 31005f5f  AS_DENORM__ 1.__
 1210 464c5436 34585f44 454e4f52 4d5f4d49  FLT64X_DENORM_MI
 1220 4e5f5f20 362e3437 35313735 31313934  N__ 6.4751751194
 1230 33383032 35313130 39323434 33383935  3802511092443895
 1240 38323237 36343635 35652d34 39363646  822764655e-4966F
 1250 36347800 5f5f464c 54313238 5f4d494e  64x.__FLT128_MIN
 1260 5f31305f 4558505f 5f20282d 34393331  _10_EXP__ (-4931
 1270 29005f5f 494e545f 4d41585f 5f203078  ).__INT_MAX__ 0x
 1280 37666666 66666666 005f5f46 4c543132  7fffffff.__FLT12
 1290 385f4841 535f4445 4e4f524d 5f5f2031  8_HAS_DENORM__ 1
 12a0 005f5f46 4c543132 385f4d49 4e5f5f20  .__FLT128_MIN__ 
 12b0 332e3336 32313033 31343331 31323039  3.36210314311209
 12c0 33353036 32363236 37373831 37333231  3506262677817321
 12d0 37353236 30652d34 39333246 31323800  75260e-4932F128.
 12e0 5f5f474e 55435f50 41544348 4c455645  __GNUC_PATCHLEVE
 12f0 4c5f5f20 30005f5f 41544f4d 49435f52  L__ 0.__ATOMIC_R
 1300 454c4541 53452033 005f5f46 4c543332  ELEASE 3.__FLT32
 1310 5f4d494e 5f31305f 4558505f 5f20282d  _MIN_10_EXP__ (-
 1320 33372900 4e554c4c 2030005f 5f44424c  37).NULL 0.__DBL
 1330 5f444543 494d414c 5f444947 5f5f2031  _DECIMAL_DIG__ 1
 1340 37005f5f 44424c5f 4449475f 5f203135  7.__DBL_DIG__ 15
 1350 005f5f47 4e55435f 5f203132 005f5f46  .__GNUC__ 12.__F
 1360 4c545f44 4543494d 414c5f44 49475f5f  LT_DECIMAL_DIG__
 1370 2039005f 5f494e54 5f464153 5436345f   9.__INT_FAST64_
 1380 54595045 5f5f206c 6f6e6720 6c6f6e67  TYPE__ long long
 1390 20696e74 005f5f42 49474745 53545f41   int.__BIGGEST_A
 13a0 4c49474e 4d454e54 5f5f2031 36005f5f  LIGNMENT__ 16.__
 13b0 53495a45 4f465f49 4e545f5f 2034005f  SIZEOF_INT__ 4._
 13c0 5f55494e 545f4c45 41535438 5f4d4158  _UINT_LEAST8_MAX
 13d0 5f5f2030 78666600 5f5f464c 54333258  __ 0xff.__FLT32X
 13e0 5f4d4158 5f31305f 4558505f 5f203330  _MAX_10_EXP__ 30
 13f0 38005f5f 494e5431 365f4d41 585f5f20  8.__INT16_MAX__ 
 1400 30783766 6666005f 5f464c54 3132385f  0x7fff.__FLT128_
 1410 4d41585f 4558505f 5f203136 33383400  MAX_EXP__ 16384.
 1420 5f5f4348 41525f55 4e534947 4e45445f  __CHAR_UNSIGNED_
 1430 5f203100 5f5f464c 54363458 5f4d4158  _ 1.__FLT64X_MAX
 1440 5f5f2031 2e313839 37333134 39353335  __ 1.18973149535
 1450 37323331 37363530 38353735 39333236  7231765085759326
 1460 36323830 30373032 652b3439 33324636  62800702e+4932F6
 1470 3478005f 5f494e54 5f574944 54485f5f  4x.__INT_WIDTH__
 1480 20333200 5f5f464c 545f4d41 4e545f44   32.__FLT_MANT_D
 1490 49475f5f 20323400 756e735f 746f5f73  IG__ 24.uns_to_s
 14a0 7472005f 5f4c4442 4c5f4953 5f494543  tr.__LDBL_IS_IEC
 14b0 5f363035 35395f5f 2032005f 5f494e54  _60559__ 2.__INT
 14c0 5f464153 54385f54 5950455f 5f20696e  _FAST8_TYPE__ in
 14d0 74005f5f 464c5433 325f4d41 585f3130  t.__FLT32_MAX_10
 14e0 5f455850 5f5f2033 38005f5f 4743435f  _EXP__ 38.__GCC_
 14f0 41544f4d 49435f53 484f5254 5f4c4f43  ATOMIC_SHORT_LOC
 1500 4b5f4652 45452031 005f5f55 494e5433  K_FREE 1.__UINT3
 1510 325f4d41 585f5f20 30786666 66666666  2_MAX__ 0xffffff
 1520 6666554c 005f5f46 4c543332 585f4449  ffUL.__FLT32X_DI
 1530 475f5f20 3135005f 5f494e54 5f464153  G__ 15.__INT_FAS
 1540 5436345f 4d41585f 5f203078 37666666  T64_MAX__ 0x7fff
 1550 66666666 66666666 66666666 4c4c005f  ffffffffffffLL._
 1560 5f464c54 3332585f 4d414e54 5f444947  _FLT32X_MANT_DIG
 1570 5f5f2035 33005f5f 494e5436 345f5459  __ 53.__INT64_TY
 1580 50455f5f 206c6f6e 67206c6f 6e672069  PE__ long long i
 1590 6e74005f 5f494e54 5f4c4541 5354385f  nt.__INT_LEAST8_
 15a0 57494454 485f5f20 38005f5f 55494e54  WIDTH__ 8.__UINT
 15b0 5f4c4541 53543136 5f545950 455f5f20  _LEAST16_TYPE__ 
 15c0 73686f72 7420756e 7369676e 65642069  short unsigned i
 15d0 6e74005f 5f44424c 5f4d4158 5f455850  nt.__DBL_MAX_EXP
 15e0 5f5f2031 30323400 5f5f464c 54313238  __ 1024.__FLT128
 15f0 5f49535f 4945435f 36303535 395f5f20  _IS_IEC_60559__ 
 1600 32005f5f 55494e54 5054525f 4d41585f  2.__UINTPTR_MAX_
 1610 5f203078 66666666 66666666 55005f5f  _ 0xffffffffU.__
 1620 72697363 765f6d75 6c646976 2031005f  riscv_muldiv 1._
 1630 5f474343 5f494543 5f353539 5f434f4d  _GCC_IEC_559_COM
 1640 504c4558 2030005f 5f41544f 4d49435f  PLEX 0.__ATOMIC_
 1650 41435155 49524520 32005f5f 464c5436  ACQUIRE 2.__FLT6
 1660 345f4953 5f494543 5f363035 35395f5f  4_IS_IEC_60559__
 1670 2032005f 5f464c54 33325f44 4543494d   2.__FLT32_DECIM
 1680 414c5f44 49475f5f 2039005f 5f55494e  AL_DIG__ 9.__UIN
 1690 544d4158 5f4d4158 5f5f2030 78666666  TMAX_MAX__ 0xfff
 16a0 66666666 66666666 66666666 66554c4c  fffffffffffffULL
 16b0 005f5f47 43435f41 544f4d49 435f494e  .__GCC_ATOMIC_IN
 16c0 545f4c4f 434b5f46 52454520 31005f5f  T_LOCK_FREE 1.__
 16d0 464c545f 4d41585f 5f20332e 34303238  FLT_MAX__ 3.4028
 16e0 32333436 36333835 32383835 39383131  2346638528859811
 16f0 37303431 38333438 34353136 39323565  704183484516925e
 1700 2b333846 005f5f53 495a454f 465f5743  +38F.__SIZEOF_WC
 1710 4841525f 545f5f20 34005f5f 464c5433  HAR_T__ 4.__FLT3
 1720 32585f44 4543494d 414c5f44 49475f5f  2X_DECIMAL_DIG__
 1730 20313700 5f5f4743 435f4154 4f4d4943   17.__GCC_ATOMIC
 1740 5f434841 525f4c4f 434b5f46 52454520  _CHAR_LOCK_FREE 
 1750 31005f5f 464c5433 325f4953 5f494543  1.__FLT32_IS_IEC
 1760 5f363035 35395f5f 2032005f 5f55494e  _60559__ 2.__UIN
 1770 545f4641 53543332 5f545950 455f5f20  T_FAST32_TYPE__ 
 1780 756e7369 676e6564 20696e74 005f5f72  unsigned int.__r
 1790 69736376 5f646976 2031005f 5f464c54  iscv_div 1.__FLT
 17a0 36345f4d 494e5f31 305f4558 505f5f20  64_MIN_10_EXP__ 
 17b0 282d3330 3729005f 5f55494e 5433325f  (-307).__UINT32_
 17c0 54595045 5f5f206c 6f6e6720 756e7369  TYPE__ long unsi
 17d0 676e6564 20696e74 005f5f55 494e5433  gned int.__UINT3
 17e0 325f4328 63292063 20232320 554c005f  2_C(c) c ## UL._
 17f0 5f494e54 5f4c4541 53543332 5f545950  _INT_LEAST32_TYP
 1800 455f5f20 6c6f6e67 20696e74 005f5f49  E__ long int.__I
 1810 4e545f4c 45415354 31365f4d 41585f5f  NT_LEAST16_MAX__
 1820 20307837 66666600 5f5f464c 54313238   0x7fff.__FLT128
 1830 5f484153 5f515549 45545f4e 414e5f5f  _HAS_QUIET_NAN__
 1840 2031005f 5f57494e 545f5749 4454485f   1.__WINT_WIDTH_
 1850 5f203332 005f5f46 4c543132 385f4445  _ 32.__FLT128_DE
 1860 43494d41 4c5f4449 475f5f20 3336005f  CIMAL_DIG__ 36._
 1870 5f574348 41525f4d 494e5f5f 20282d5f  _WCHAR_MIN__ (-_
 1880 5f574348 41525f4d 41585f5f 202d2031  _WCHAR_MAX__ - 1
 1890 29005f5f 4743435f 41544f4d 49435f43  ).__GCC_ATOMIC_C
 18a0 48415231 365f545f 4c4f434b 5f465245  HAR16_T_LOCK_FRE
 18b0 45203100 5f5f7269 7363765f 69203230  E 1.__riscv_i 20
 18c0 30303030 30005f5f 4c44424c 5f4d4158  00000.__LDBL_MAX
 18d0 5f455850 5f5f2031 36333834 005f5f44  _EXP__ 16384.__D
 18e0 424c5f45 5053494c 4f4e5f5f 20282864  BL_EPSILON__ ((d
 18f0 6f75626c 6529322e 32323034 34363034  ouble)2.22044604
 1900 39323530 33313330 38303834 37323633  9250313080847263
 1910 33333631 38313634 30363265 2d31364c  33618164062e-16L
 1920 29005f5f 56455253 494f4e5f 5f202231  ).__VERSION__ "1
 1930 322e312e 3022005f 5f464c54 3332585f  2.1.0".__FLT32X_
 1940 4841535f 44454e4f 524d5f5f 2031005f  HAS_DENORM__ 1._
 1950 5f494e54 4d41585f 43286329 20632023  _INTMAX_C(c) c #
 1960 23204c4c 005f5f46 4c545f4e 4f524d5f  # LL.__FLT_NORM_
 1970 4d41585f 5f20332e 34303238 32333436  MAX__ 3.40282346
 1980 36333835 32383835 39383131 37303431  6385288598117041
 1990 38333438 34353136 39323565 2b333846  83484516925e+38F
 19a0 005f5f72 69736376 5f6d756c 2031005f  .__riscv_mul 1._
 19b0 5f505452 44494646 5f4d4158 5f5f2030  _PTRDIFF_MAX__ 0
 19c0 78376666 66666666 66005f5f 464c545f  x7fffffff.__FLT_
 19d0 4556414c 5f4d4554 484f445f 5f203000  EVAL_METHOD__ 0.
 19e0 5f5f494e 545f4c45 41535438 5f545950  __INT_LEAST8_TYP
 19f0 455f5f20 7369676e 65642063 68617200  E__ signed char.
 1a00 5f5f5549 4e543136 5f432863 29206300  __UINT16_C(c) c.
 1a10 5f5f5348 52545f4d 41585f5f 20307837  __SHRT_MAX__ 0x7
 1a20 66666600 5f5f5349 5a454f46 5f464c4f  fff.__SIZEOF_FLO
 1a30 41545f5f 2034005f 5f574348 41525f4d  AT__ 4.__WCHAR_M
 1a40 41585f5f 20307837 66666666 66666600  AX__ 0x7fffffff.
 1a50 5f5f464c 54313238 5f44454e 4f524d5f  __FLT128_DENORM_
 1a60 4d494e5f 5f20362e 34373531 37353131  MIN__ 6.47517511
 1a70 39343338 30323531 31303932 34343338  9438025110924438
 1a80 39353832 32373634 36353565 2d343936  95822764655e-496
 1a90 36463132 38005f5f 53544443 5f5f2031  6F128.__STDC__ 1
 1aa0 005f5f4f 52444552 5f504450 5f454e44  .__ORDER_PDP_END
 1ab0 49414e5f 5f203334 3132005f 5f464c54  IAN__ 3412.__FLT
 1ac0 36345f4e 4f524d5f 4d41585f 5f20312e  64_NORM_MAX__ 1.
 1ad0 37393736 39333133 34383632 33313537  7976931348623157
 1ae0 30383134 35323734 32333733 31373034  0814527423731704
 1af0 33353765 2b333038 46363400 5f5f4f52  357e+308F64.__OR
 1b00 4445525f 4c495454 4c455f45 4e444941  DER_LITTLE_ENDIA
 1b10 4e5f5f20 31323334 005f5f57 494e545f  N__ 1234.__WINT_
 1b20 54595045 5f5f2075 6e736967 6e656420  TYPE__ unsigned 
 1b30 696e7400 5f5f4c4f 4e475f4d 41585f5f  int.__LONG_MAX__
 1b40 20307837 66666666 6666664c 005f5f49   0x7fffffffL.__I
 1b50 4e545f4c 45415354 36345f54 5950455f  NT_LEAST64_TYPE_
 1b60 5f206c6f 6e67206c 6f6e6720 696e7400  _ long long int.
 1b70 5f5f4154 4f4d4943 5f52454c 41584544  __ATOMIC_RELAXED
 1b80 2030005f 5f494e54 5f4c4541 53543332   0.__INT_LEAST32
 1b90 5f4d4158 5f5f2030 78376666 66666666  _MAX__ 0x7ffffff
 1ba0 664c005f 5f474343 5f494543 5f353539  fL.__GCC_IEC_559
 1bb0 2030005f 5f464c54 3332585f 44454e4f   0.__FLT32X_DENO
 1bc0 524d5f4d 494e5f5f 20342e39 34303635  RM_MIN__ 4.94065
 1bd0 36343538 34313234 36353434 31373635  6458412465441765
 1be0 36383739 32383638 32323133 3732652d  68792868221372e-
 1bf0 33323446 33327800 5f5f464c 54363458  324F32x.__FLT64X
 1c00 5f4d414e 545f4449 475f5f20 31313300  _MANT_DIG__ 113.
 1c10 5f5f464c 54363458 5f49535f 4945435f  __FLT64X_IS_IEC_
 1c20 36303535 395f5f20 32005f5f 464c5436  60559__ 2.__FLT6
 1c30 34585f48 41535f51 55494554 5f4e414e  4X_HAS_QUIET_NAN
 1c40 5f5f2031 005f5f4c 44424c5f 4841535f  __ 1.__LDBL_HAS_
 1c50 51554945 545f4e41 4e5f5f20 31005f5f  QUIET_NAN__ 1.__
 1c60 5349475f 41544f4d 49435f4d 41585f5f  SIG_ATOMIC_MAX__
 1c70 20307837 66666666 66666600 5f5f464c   0x7fffffff.__FL
 1c80 54333258 5f484153 5f494e46 494e4954  T32X_HAS_INFINIT
 1c90 595f5f20 31005f5f 464c5431 32385f4d  Y__ 1.__FLT128_M
 1ca0 414e545f 4449475f 5f203131 33005f5f  ANT_DIG__ 113.__
 1cb0 55494e54 5054525f 54595045 5f5f2075  UINTPTR_TYPE__ u
 1cc0 6e736967 6e656420 696e7400 5f5f4c44  nsigned int.__LD
 1cd0 424c5f4e 4f524d5f 4d41585f 5f20312e  BL_NORM_MAX__ 1.
 1ce0 31383937 33313439 35333537 32333137  1897314953572317
 1cf0 36353038 35373539 33323636 32383030  6508575932662800
 1d00 37303265 2b343933 324c005f 5f464c54  702e+4932L.__FLT
 1d10 5f524144 49585f5f 2032005f 5f464c54  _RADIX__ 2.__FLT
 1d20 36345f4d 414e545f 4449475f 5f203533  64_MANT_DIG__ 53
 1d30 005f5f46 4c545f48 41535f49 4e46494e  .__FLT_HAS_INFIN
 1d40 4954595f 5f203100 7072696e 745f7374  ITY__ 1.print_st
 1d50 72696e67 005f5f46 4c543634 5f444543  ring.__FLT64_DEC
 1d60 494d414c 5f444947 5f5f2031 37005f5f  IMAL_DIG__ 17.__
 1d70 474e5543 5f574944 455f4558 45435554  GNUC_WIDE_EXECUT
 1d80 494f4e5f 43484152 5345545f 4e414d45  ION_CHARSET_NAME
 1d90 20225554 462d3332 4c452200 5f5f4c4f   "UTF-32LE".__LO
 1da0 4e475f4c 4f4e475f 57494454 485f5f20  NG_LONG_WIDTH__ 
 1db0 3634005f 5f464c54 36345f44 454e4f52  64.__FLT64_DENOR
 1dc0 4d5f4d49 4e5f5f20 342e3934 30363536  M_MIN__ 4.940656
 1dd0 34353834 31323436 35343431 37363536  4584124654417656
 1de0 38373932 38363832 32313337 32652d33  8792868221372e-3
 1df0 32344636 34005f5f 494e5431 365f5459  24F64.__INT16_TY
 1e00 50455f5f 2073686f 72742069 6e74005f  PE__ short int._
 1e10 5f4c4942 5f485f5f 20005f5f 53495a45  _LIB_H__ .__SIZE
 1e20 4f465f4c 4f4e475f 5f203400 5f5f5549  OF_LONG__ 4.__UI
 1e30 4e545f46 41535433 325f4d41 585f5f20  NT_FAST32_MAX__ 
 1e40 30786666 66666666 66665500 5f5f5354  0xffffffffU.__ST
 1e50 44435f55 54465f31 365f5f20 31005f5f  DC_UTF_16__ 1.__
 1e60 474e5543 5f455845 43555449 4f4e5f43  GNUC_EXECUTION_C
 1e70 48415253 45545f4e 414d4520 22555446  HARSET_NAME "UTF
 1e80 2d382200 5f5f5549 4e545f46 41535438  -8".__UINT_FAST8
 1e90 5f545950 455f5f20 756e7369 676e6564  _TYPE__ unsigned
 1ea0 20696e74 005f5f50 54524449 46465f54   int.__PTRDIFF_T
 1eb0 5950455f 5f20696e 74005f5f 4c44424c  YPE__ int.__LDBL
 1ec0 5f484153 5f44454e 4f524d5f 5f203100  _HAS_DENORM__ 1.
 1ed0 5f5f464c 54333258 5f484153 5f515549  __FLT32X_HAS_QUI
 1ee0 45545f4e 414e5f5f 2031005f 5f464c54  ET_NAN__ 1.__FLT
 1ef0 3634585f 45505349 4c4f4e5f 5f20312e  64X_EPSILON__ 1.
 1f00 39323539 32393934 34333837 32333538  9259299443872358
 1f10 35333035 35393737 39343235 38343932  5305597794258492
 1f20 37333265 2d333446 36347800 5f5f494e  732e-34F64x.__IN
 1f30 545f4641 53543332 5f4d4158 5f5f2030  T_FAST32_MAX__ 0
 1f40 78376666 66666666 66005f5f 52454749  x7fffffff.__REGI
 1f50 53544552 5f505245 4649585f 5f20005f  STER_PREFIX__ ._
 1f60 5f41544f 4d49435f 434f4e53 554d4520  _ATOMIC_CONSUME 
 1f70 31005f5f 4c44424c 5f444543 494d414c  1.__LDBL_DECIMAL
 1f80 5f444947 5f5f2033 36005f5f 53544443  _DIG__ 36.__STDC
 1f90 5f555446 5f33325f 5f203100 5f5f5549  _UTF_32__ 1.__UI
 1fa0 4e543136 5f545950 455f5f20 73686f72  NT16_TYPE__ shor
 1fb0 7420756e 7369676e 65642069 6e74005f  t unsigned int._
 1fc0 5f464c54 3634585f 4d41585f 31305f45  _FLT64X_MAX_10_E
 1fd0 58505f5f 20343933 32005f5f 4f505449  XP__ 4932.__OPTI
 1fe0 4d495a45 5f5f2031 005f5f46 4c543634  MIZE__ 1.__FLT64
 1ff0 585f4d49 4e5f4558 505f5f20 282d3136  X_MIN_EXP__ (-16
 2000 33383129 005f5f46 4c543332 5f484153  381).__FLT32_HAS
 2010 5f515549 45545f4e 414e5f5f 2031005f  _QUIET_NAN__ 1._
 2020 5f53495a 454f465f 50545244 4946465f  _SIZEOF_PTRDIFF_
 2030 545f5f20 34005f5f 464c5431 32385f4d  T__ 4.__FLT128_M
 2040 41585f5f 20312e31 38393733 31343935  AX__ 1.189731495
 2050 33353732 33313736 35303835 37353933  3572317650857593
 2060 32363632 38303037 3032652b 34393332  2662800702e+4932
 2070 46313238 005f5f49 4e545f46 41535431  F128.__INT_FAST1
 2080 365f4d41 585f5f20 30783766 66666666  6_MAX__ 0x7fffff
 2090 6666005f 5f534947 5f41544f 4d49435f  ff.__SIG_ATOMIC_
 20a0 4d494e5f 5f20282d 5f5f5349 475f4154  MIN__ (-__SIG_AT
 20b0 4f4d4943 5f4d4158 5f5f202d 20312900  OMIC_MAX__ - 1).
 20c0 5f5f494e 545f4641 53543634 5f574944  __INT_FAST64_WID
 20d0 54485f5f 20363400 5f5f494e 545f4641  TH__ 64.__INT_FA
 20e0 53543332 5f545950 455f5f20 696e7400  ST32_TYPE__ int.
 20f0 5f5f464c 5433325f 44454e4f 524d5f4d  __FLT32_DENORM_M
 2100 494e5f5f 20312e34 30313239 38343634  IN__ 1.401298464
 2110 33323438 31373037 30393233 37323935  3248170709237295
 2120 38333238 39393136 3133652d 34354633  8328991613e-45F3
 2130 32005f5f 55494e54 5f464153 5431365f  2.__UINT_FAST16_
 2140 54595045 5f5f2075 6e736967 6e656420  TYPE__ unsigned 
 2150 696e7400 5f5f464c 5436345f 4449475f  int.__FLT64_DIG_
 2160 5f203135 005f5f72 69736376 2031005f  _ 15.__riscv 1._
 2170 5f474343 5f41544f 4d49435f 4c4f4e47  _GCC_ATOMIC_LONG
 2180 5f4c4f43 4b5f4652 45452031 005f5f44  _LOCK_FREE 1.__D
 2190 424c5f4d 41585f5f 20282864 6f75626c  BL_MAX__ ((doubl
 21a0 6529312e 37393736 39333133 34383632  e)1.797693134862
 21b0 33313537 30383134 35323734 32333733  3157081452742373
 21c0 31373034 33353765 2b333038 4c29005f  1704357e+308L)._
 21d0 5f464c54 3634585f 4449475f 5f203333  _FLT64X_DIG__ 33
 21e0 005f5f49 4e54385f 4d41585f 5f203078  .__INT8_MAX__ 0x
 21f0 3766005f 5f44424c 5f484153 5f515549  7f.__DBL_HAS_QUI
 2200 45545f4e 414e5f5f 2031005f 5f464c54  ET_NAN__ 1.__FLT
 2210 5f4d494e 5f31305f 4558505f 5f20282d  _MIN_10_EXP__ (-
 2220 33372900 5f5f4743 435f4154 4f4d4943  37).__GCC_ATOMIC
 2230 5f544553 545f414e 445f5345 545f5452  _TEST_AND_SET_TR
 2240 55455641 4c203100 5f5f4154 4f4d4943  UEVAL 1.__ATOMIC
 2250 5f414351 5f52454c 2034005f 5f574348  _ACQ_REL 4.__WCH
 2260 41525f54 5950455f 5f20696e 74005f5f  AR_TYPE__ int.__
 2270 464c5431 32385f4e 4f524d5f 4d41585f  FLT128_NORM_MAX_
 2280 5f20312e 31383937 33313439 35333537  _ 1.189731495357
 2290 32333137 36353038 35373539 33323636  2317650857593266
 22a0 32383030 37303265 2b343933 32463132  2800702e+4932F12
 22b0 38005f5f 72697363 765f786c 656e2033  8.__riscv_xlen 3
 22c0 32005f5f 46494e49 54455f4d 4154485f  2.__FINITE_MATH_
 22d0 4f4e4c59 5f5f2030 00617267 63005f5f  ONLY__ 0.argc.__
 22e0 50545244 4946465f 57494454 485f5f20  PTRDIFF_WIDTH__ 
 22f0 3332005f 5f555345 525f4c41 42454c5f  32.__USER_LABEL_
 2300 50524546 49585f5f 20005f5f 464c5436  PREFIX__ .__FLT6
 2310 34585f4d 41585f45 58505f5f 20313633  4X_MAX_EXP__ 163
 2320 3834005f 5f464c54 33325f4d 494e5f45  84.__FLT32_MIN_E
 2330 58505f5f 20282d31 32352900 5f5f464c  XP__ (-125).__FL
 2340 54313238 5f4d4158 5f31305f 4558505f  T128_MAX_10_EXP_
 2350 5f203439 3332005f 5f55494e 545f4641  _ 4932.__UINT_FA
 2360 53543634 5f545950 455f5f20 6c6f6e67  ST64_TYPE__ long
 2370 206c6f6e 6720756e 7369676e 65642069   long unsigned i
 2380 6e74005f 5f55494e 54385f43 28632920  nt.__UINT8_C(c) 
 2390 63005f5f 464c5431 32385f44 49475f5f  c.__FLT128_DIG__
 23a0 20333300 5f5f5549 4e545f4c 45415354   33.__UINT_LEAST
 23b0 385f5459 50455f5f 20756e73 69676e65  8_TYPE__ unsigne
 23c0 64206368 6172005f 5f494e54 5f4c4541  d char.__INT_LEA
 23d0 53543634 5f574944 54485f5f 20363400  ST64_WIDTH__ 64.
 23e0 5f5f494e 5433325f 4d41585f 5f203078  __INT32_MAX__ 0x
 23f0 37666666 66666666 4c005f5f 72697363  7fffffffL.__risc
 2400 765f666c 6f61745f 6162695f 736f6674  v_float_abi_soft
 2410 20310061 72677600 5f5f464c 54333258   1.argv.__FLT32X
 2420 5f4d494e 5f455850 5f5f2028 2d313032  _MIN_EXP__ (-102
 2430 3129005f 5f474343 5f41544f 4d49435f  1).__GCC_ATOMIC_
 2440 504f494e 5445525f 4c4f434b 5f465245  POINTER_LOCK_FRE
 2450 45203100 5f5f494e 545f4c45 41535438  E 1.__INT_LEAST8
 2460 5f4d4158 5f5f2030 78376600 5f5f4743  _MAX__ 0x7f.__GC
 2470 435f4154 4f4d4943 5f424f4f 4c5f4c4f  C_ATOMIC_BOOL_LO
 2480 434b5f46 52454520 31005f5f 55494e54  CK_FREE 1.__UINT
 2490 5f4c4541 53543634 5f4d4158 5f5f2030  _LEAST64_MAX__ 0
 24a0 78666666 66666666 66666666 66666666  xfffffffffffffff
 24b0 66554c4c 005f5f44 424c5f4d 494e5f31  fULL.__DBL_MIN_1
 24c0 305f4558 505f5f20 282d3330 3729005f  0_EXP__ (-307)._
 24d0 5f474e55 435f5354 44435f49 4e4c494e  _GNUC_STDC_INLIN
 24e0 455f5f20 31005f5f 464c5436 345f4d41  E__ 1.__FLT64_MA
 24f0 585f3130 5f455850 5f5f2033 3038005f  X_10_EXP__ 308._
 2500 5f464c54 36345f4d 494e5f45 58505f5f  _FLT64_MIN_EXP__
 2510 20282d31 30323129 00706174 6800636c   (-1021).path.cl
 2520 6f73655f 66696c65 00686561 705f7374  ose_file.heap_st
 2530 61727400 656e645f 6368756e 6b007374  art.end_chunk.st
 2540 725f746f 5f756e73 00726574 76616c00  r_to_uns.retval.
 2550 6d656d6f 72790069 6e697469 616c697a  memory.initializ
 2560 65640062 6c6f636b 00424c4f 434b5f53  ed.block.BLOCK_S
 2570 495a455f 53544550 20380072 6561645f  IZE_STEP 8.read_
 2580 73747269 6e670061 7267735f 70747200  string.args_ptr.
 2590 6d61785f 63686172 7300736d 616c6c5f  max_chars.small_
 25a0 626c6f63 6b5f6865 61646572 73006f70  block_headers.op
 25b0 656e5f66 696c6500 616c6c6f 63617469  en_file.allocati
 25c0 6f6e006f 75747000 77726974 655f696e  on.outp.write_in
 25d0 745f6275 66666572 00667265 655f7370  t_buffer.free_sp
 25e0 61636500 6e756d5f 6368756e 6b730069  ace.num_chunks.i
 25f0 6e69745f 68656170 004d494e 5f414c4c  nit_heap.MIN_ALL
 2600 4f434154 494f4e20 31303000 61726773  OCATION 100.args
 2610 5f746f5f 6d61696e 00746572 6d696e61  _to_main.termina
 2620 7465006f 66667365 7400534d 414c4c5f  te.offset.SMALL_
 2630 424c4f43 4b5f4c49 4d495420 34303936  BLOCK_LIMIT 4096
 2640 0072656c 65617365 00737461 74757300  .release.status.
 2650 72656164 5f696e74 5f627566 66657200  read_int_buffer.
 2660 6d61785f 73697a65 00666c61 6773006e  max_size.flags.n
 2670 756d5f73 697a6500 68656164 6572004e  um_size.header.N
 2680 554d5f53 495a4553 2028534d 414c4c5f  UM_SIZES (SMALL_
 2690 424c4f43 4b5f4c49 4d495420 2f20424c  BLOCK_LIMIT / BL
 26a0 4f434b5f 53495a45 5f535445 50290061  OCK_SIZE_STEP).a
 26b0 6c6c6f63 61746500                    llocate.        
Contents of section .debug_line_str:
 0000 6d617472 69785f67 6f6f645f 64656275  matrix_good_debu
 0010 67636f6d 6d2e6300 2f6d6e74 2f632f55  gcomm.c./mnt/c/U
 0020 73657273 2f617362 6a6f2f44 6f63756d  sers/asbjo/Docum
 0030 656e7473 2f4b552f 42616368 656c6f72  ents/KU/Bachelor
 0040 70726f6a 656b742f 5468654d 656d6f72  projekt/TheMemor
 0050 79486f6c 652f656e 67696e65 2f746573  yHole/engine/tes
 0060 74696e67 2f435f50 726f6772 616d7300  ting/C_Programs.
 0070 6c69622e 68006c69 622e6300           lib.h.lib.c.    
Contents of section .debug_loclists:
 0000 93000000 05000400 00000000 07940001  ................
 0010 00c40001 00015a07 c4000100 60010100  ......Z.....`...
 0020 04a3015a 9f000794 000100ec 00010001  ...Z............
 0030 5b07ec00 01000c01 010004a3 015b9f07  [............[..
 0040 0c010100 10010100 015b0710 01010060  .........[.....`
 0050 01010004 a3015b9f 0007ec00 01000c01  ......[.........
 0060 0100015b 07140101 00270101 00015b00  ...[.....'....[.
 0070 07a40001 00d00001 0002309f 0007d800  ..........0.....
 0080 0100dc00 01000230 9f0007f4 000100f8  .......0........
 0090 00010002 309f006f 04000005 00040000  ....0..o........
 00a0 00000007 fc040100 2c050100 015a072c  ........,....Z.,
 00b0 05010034 05010003 7a049f00 07fc0401  ...4....z.......
 00c0 002c0501 00037a7c 9f072c05 01003405  .,....z|..,...4.
 00d0 0100015a 0007fc04 01002805 0100027a  ...Z......(....z
 00e0 7c0007fc 04010028 05010006 7a7c0638  |......(....z|.8
 00f0 1b9f0007 fc030100 3c040100 015a073c  ........<....Z.<
 0100 0401004c 04010001 5e074c04 01005004  ...L....^.L...P.
 0110 0100037a 049f0750 040100ec 04010001  ...z...P........
 0120 5e07ec04 0100f004 0100015a 07f00401  ^..........Z....
 0130 00f40401 0004a301 5a9f07f4 040100fc  ........Z.......
 0140 04010001 5e000740 04010048 04010001  ....^..@...H....
 0150 5f074804 01005004 0100047f 00209f07  _.H...P...... ..
 0160 50040100 80040100 057a0437 1a9f0780  P........z.7....
 0170 04010098 04010008 a3015a23 04371a9f  ..........Z#.7..
 0180 07980401 00cc0401 00057a04 371a9f07  ..........z.7...
 0190 cc040100 ec040100 08a3015a 2304371a  ...........Z#.7.
 01a0 9f07f404 0100f804 0100057a 04371a9f  ...........z.7..
 01b0 07f80401 00fc0401 0008a301 5a230437  ............Z#.7
 01c0 1a9f0007 60040100 6c040100 015f076c  ....`...l...._.l
 01d0 040100ec 0401000c 7e004f26 371a7e00  ........~.O&7.~.
 01e0 2233269f 07f40401 00fc0401 00015f00  "3&..........._.
 01f0 07780401 00ec0401 00015f00 07840401  .x........_.....
 0200 00980401 00015d00 07140401 00280401  ......]......(..
 0210 0002309f 0007a404 0100b004 0100015d  ..0............]
 0220 07b00401 00b80401 000a7e00 32247e00  ..........~.2$~.
 0230 2231249f 07b80401 00c40401 00015d00  "1$...........].
 0240 07c00401 00ec0401 00015b00 07c40401  ..........[.....
 0250 00ec0401 00015d00 07ac0401 00b40401  ......].........
 0260 00060864 7e001b9f 07b40401 00b80401  ...d~...........
 0270 00015d00 07740301 00800301 00015a07  ..]..t........Z.
 0280 80030100 88030100 015d0788 030100d4  .........]......
 0290 03010001 5e07d403 0100e803 0100015d  ....^..........]
 02a0 00077403 0100a403 0100015b 07a40301  ..t........[....
 02b0 00e80301 00015b00 07880301 00a80301  ......[.........
 02c0 00015d07 a8030100 d4030100 015f0007  ..].........._..
 02d0 b0030100 d4030100 015a0007 b8030100  .........Z......
 02e0 c0030100 027f0007 c0030100 d0030100  ................
 02f0 015d0007 38030100 40030100 015a0740  .]..8...@....Z.@
 0300 03010074 03010001 5d0007a8 020100cf  ...t....].......
 0310 02010001 5a07cf02 01001803 01000158  ....Z..........X
 0320 0007a802 0100cf02 0100015b 07cf0201  ...........[....
 0330 00ec0201 00015907 ec020100 f0020100  ......Y.........
 0340 0379019f 07f00201 00180301 0004a301  .y..............
 0350 5b9f0007 d0020100 07030100 015a0708  [............Z..
 0360 03010018 03010001 5a00076c 02010080  ........Z..l....
 0370 02010001 5a078002 0100a002 01000158  ....Z..........X
 0380 00075402 01005c02 0100015a 075c0201  ..T...\....Z.\..
 0390 00680201 00015f07 68020100 6c020100  .h...._.h...l...
 03a0 04a3015a 9f000734 02010040 02010001  ...Z...4...@....
 03b0 5a074002 01005402 0100015e 00073402  Z.@...T....^..4.
 03c0 01004402 0100015b 07440201 00500201  ..D....[.D...P..
 03d0 00015f07 50020100 54020100 04a3015b  .._.P...T......[
 03e0 9f00070c 0201001c 02010001 5a071c02  ............Z...
 03f0 01003402 0100015d 00070c02 01002002  ..4....]...... .
 0400 0100015b 07200201 00340201 00015e00  ...[. ...4....^.
 0410 070c0201 00240201 00015c07 24020100  .....$....\.$...
 0420 30020100 015f0730 02010034 02010004  0...._.0...4....
 0430 a3015c9f 0007e401 0100f401 0100015a  ..\............Z
 0440 07f40101 000c0201 00015d00 07e40101  ..........].....
 0450 00f80101 00015b07 f8010100 0c020100  ......[.........
 0460 015e0007 e4010100 fc010100 015c07fc  .^...........\..
 0470 01010008 02010001 5f070802 01000c02  ........_.......
 0480 010004a3 015c9f00 07c00101 00c80101  .....\..........
 0490 00015a07 c8010100 d4010100 04a3015a  ..Z............Z
 04a0 9f000788 01010098 01010001 5a079801  ............Z...
 04b0 01009f01 0100037b 7c9f079f 010100ac  .......{|.......
 04c0 01010004 a3015a9f 00079001 01009801  ......Z.........
 04d0 0100027a 00079801 01009f01 0100015a  ...z...........Z
 04e0 00079001 01009401 0100037a 049f0794  ...........z....
 04f0 0101009f 01010001 5b079f01 0100ac01  ........[.......
 0500 010006a3 015a2304 9f00               .....Z#...      
Contents of section .debug_macro:
 0000 05000200 00000007 1a000000 03000103  ................
 0010 02020762 07000004 04000500 00050096  ...b............
 0020 1a000005 00380400 0005004c 1e000005  .....8.....L....
 0030 008a1f00 0005000a 05000005 00511300  .............Q..
 0040 0005003e 0e000005 00e01200 00050022  ...>..........."
 0050 19000005 00701b00 000500c1 02000005  .....p..........
 0060 00471600 000500f6 12000005 00482200  .G...........H".
 0070 0005005f 1f000005 00da1f00 000500c2  ..._............
 0080 22000005 00ae1300 0005001a 1e000005  "...............
 0090 00290d00 0005002d 11000005 00241a00  .).....-.....$..
 00a0 0005009f 0b000005 00110e00 00050084  ................
 00b0 00000005 00120400 00050095 13000005  ................
 00c0 00fc1a00 000500b6 10000005 00a11a00  ................
 00d0 000500e4 09000005 00640a00 0005003f  .........d.....?
 00e0 01000005 005e1e00 0005006e 1d000005  .....^.....n....
 00f0 00fc0500 000500a5 1e000005 005b2200  .............[".
 0100 00050019 1b000005 000f1100 000500b1  ................
 0110 0c000005 00d01000 000500ca 03000005  ................
 0120 00df0700 000500ca 09000005 00f61d00  ................
 0130 000500ad 0a000005 00761500 000500c2  .........v......
 0140 07000005 009c1f00 000500b7 17000005  ................
 0150 00210200 000500e0 19000005 00c50a00  .!..............
 0160 000500ef 17000005 004d1b00 000500a4  .........M......
 0170 23000005 00aa1500 00050054 01000005  #..........T....
 0180 00880600 000500bb 14000005 00e40a00  ................
 0190 000500d8 20000005 00731300 00050084  .... ....s......
 01a0 1e000005 00322100 0005006b 17000005  .....2!....k....
 01b0 00572300 000500f7 06000005 00ae1c00  .W#.............
 01c0 00050094 05000005 002b0e00 00050010  .........+......
 01d0 1a000005 00721200 00050034 1b000005  .....r.....4....
 01e0 00e00e00 00050037 1a000005 006f1800  .......7.....o..
 01f0 000500e3 05000005 00010e00 000500af  ................
 0200 19000005 00d00b00 00050048 06000005  ...........H....
 0210 00340700 00050073 14000005 000b0a00  .4.....s........
 0220 0005009c 1d000005 00ba0100 00050043  ...............C
 0230 18000005 00de2200 0005005a 0c000005  ......"....Z....
 0240 00fc0a00 0005004f 19000005 008b1600  .......O........
 0250 000500ec 01000005 00a21000 0005005e  ...............^
 0260 1c000005 00932000 000500d9 0c000005  ...... .........
 0270 00e12100 000500f2 13000005 00e02300  ..!...........#.
 0280 000500d3 0f000005 00bd0b00 0005009e  ................
 0290 09000005 00091500 0005004f 0e000005  ...........O....
 02a0 00542400 0005001b 0d000005 00931500  .T$.............
 02b0 0005000d 18000005 004e0000 000500af  .........N......
 02c0 08000005 00831b00 0005001b 0c000005  ................
 02d0 00b10300 0005000b 07000005 002a0100  .............*..
 02e0 000500c7 23000005 00bf1300 00050083  ....#...........
 02f0 23000005 00910a00 00050000 1a000005  #...............
 0300 00901100 000500d9 17000005 008a2400  ..............$.
 0310 0005006d 00000005 00040200 000500bc  ...m............
 0320 0f000005 00752000 0005008e 0f000005  .....u .........
 0330 002c1f00 00050036 00000005 00371500  .,.....6.....7..
 0340 000500c0 20000005 00000000 00050064  .... ..........d
 0350 09000005 002c1e00 000500f1 0c000005  .....,..........
 0360 00840900 00050046 0c000005 00021600  .......F........
 0370 000500a3 1b000005 002f1600 000500ca  ........./......
 0380 19000005 001c0500 000500ca 0e000005  ................
 0390 000b1d00 00050084 14000005 00400d00  .............@..
 03a0 000500f6 0f000005 000b2200 000500cc  ..........".....
 03b0 11000005 00eb0d00 0005005d 13000005  ...........]....
 03c0 00ce1600 00050065 19000005 00401100  .......e.....@..
 03d0 000500f0 00000005 00200b00 00050033  ......... .....3
 03e0 09000005 00311d00 0005005c 0f000005  .....1.....\....
 03f0 00980000 00050074 06000005 00421300  .......t.....B..
 0400 000500d3 0d000005 00b52400 000500d3  ..........$.....
 0410 15000005 00240300 0005002b 13000005  .....$.....+....
 0420 008d2100 0005001d 0a000005 00b50600  ..!.............
 0430 000500dd 18000005 008a0d00 000500f9  ................
 0440 11000005 00210400 000500f3 21000005  .....!......!...
 0450 00740e00 000500ec 03000005 00020400  .t..............
 0460 00050074 0f000005 00f31000 000500c6  ...t............
 0470 18000005 00860200 0005008f 10000005  ................
 0480 00721f00 000500c8 08000005 00cc1c00  .r..............
 0490 00050077 03000005 004e0d00 0005005e  ...w.....N.....^
 04a0 0b000005 00ba1e00 0005001b 09000005  ................
 04b0 00451c00 000500a3 14000005 00a60f00  .E..............
 04c0 0005005d 00000005 00232300 00050009  ...].....##.....
 04d0 13000005 00050c00 000500d2 14000005  ................
 04e0 00731600 00050037 08000005 00f70700  .s.....7........
 04f0 00050007 0f000005 006c0c00 000500f0  .........l......
 0500 20000005 00310600 00050002 09000005   ....1..........
 0510 00052000 00050052 17000005 001b1d00  .. ....R........
 0520 00050054 21000005 00ff2400 0005009b  ...T!.....$.....
 0530 17000005 002f0c00 000500e6 24000005  ...../......$...
 0540 00551d00 000500d4 02000005 00bb1a00  .U..............
 0550 0005003b 03000005 003d0500 000500b3  ...;.....=......
 0560 1d000005 001f0000 00050077 11000005  ...........w....
 0570 00170600 0005005a 16000005 00961c00  .......Z........
 0580 00050092 23000005 00480900 00050054  ....#....H.....T
 0590 12000005 00071400 0005003c 23000005  ...........<#...
 05a0 00551800 00050036 20000005 006e2200  .U.....6 ....n".
 05b0 000500a1 12000005 00af0000 00050050  ...............P
 05c0 1a000005 00891200 00050042 0f000005  ...........B....
 05d0 00281800 000500e8 15000005 005f1500  .(..........._..
 05e0 00050025 15000005 00182400 00050094  ...%......$.....
 05f0 04000005 006e0200 000500d8 13000005  .....n..........
 0600 001a1700 0005007c 01000005 00510400  .......|.....Q..
 0610 0005000d 10000005 00b10400 000500b3  ................
 0620 1b000005 00371900 0005007c 1c000005  .....7.....|....
 0630 00d01e00 0005005a 06000005 00f81b00  .......Z........
 0640 000500cf 21000005 00e91f00 000500ab  ....!...........
 0650 05000005 000a2300 000500bf 1f000005  ......#.........
 0660 00c90500 00050034 14000005 004b1000  .......4.....K..
 0670 0005008b 0e000005 00eb1e00 0005000e  ................
 0680 12000005 00f20400 000500b2 11000005  ................
 0690 002a1c00 00050010 1c000005 004a1f00  .*...........J..
 06a0 000500f3 22000005 00cf2400 00050020  ....".....$.... 
 06b0 14000005 006c2400 00050034 17000005  .....l$....4....
 06c0 00921800 0005009f 02000005 00720800  .............r..
 06d0 000500ea 14000005 00b11600 0005006f  ...............o
 06e0 21000005 00cd0100 00050024 22000005  !..........$"...
 06f0 00332400 000500e9 0b000005 00930800  .3$.............
 0700 00050005 17000005 00100300 0005001f  ................
 0710 20000005 00652100 000500a1 19000005   ....e!.........
 0720 008d1700 0005001e 16000005 00b22200  ..............".
 0730 000500fa 23000005 007c0500 00050048  ....#....|.....H
 0740 02000005 00b41800 0005005c 02000005  ...........\....
 0750 00b40900 000500e0 11000005 00b30b00  ................
 0760 00000500 0005020f 1e000005 04241300  .............$..
 0770 00000500 02520100 00071a00 00000300  .....R..........
 0780 01030102 07620700 00040583 012a2600  .....b.......*&.
 0790 00058401 f9250000 05860169 25000005  .....%.....i%...
 07a0 87017f26 00000400                    ...&....        
Contents of section .debug_rnglists:
 0000 2e000000 05000400 00000000 06a40001  ................
 0010 00c40001 0006c800 0100ec00 01000006  ................
 0020 c8000100 d0000100 06d80001 00ec0001  ................
 0030 0000                                 ..              

matrix_good_debugcomm.riscv:     file format elf32-littleriscv


Disassembly of section .text:

00010094 <main>:
//PROGRAM_START
#include "lib.h"//[[0]]
//[[1]]
int main(int argc, char* argv[]) {//[[2]]
   10094:	81010113          	addi	sp,sp,-2032
   10098:	7e112623          	sw	ra,2028(sp)
   1009c:	7e812423          	sw	s0,2024(sp)
   100a0:	e0010113          	addi	sp,sp,-512
  char buffer[20];//[[3]]
  int matrix[25][25];//[[4]]
  //[[5]]
  for (int i = 0; i < 25; i++) {//[[6]]
   100a4:	fffff6b7          	lui	a3,0xfffff
   100a8:	00001737          	lui	a4,0x1
   100ac:	9e070793          	addi	a5,a4,-1568 # 9e0 <main-0xf6b4>
   100b0:	00d787b3          	add	a5,a5,a3
   100b4:	002786b3          	add	a3,a5,sp
   100b8:	68c68693          	addi	a3,a3,1676 # fffff68c <__BSS_END__+0xfffed94c>
   100bc:	a3070793          	addi	a5,a4,-1488
   100c0:	00f10533          	add	a0,sp,a5
int main(int argc, char* argv[]) {//[[2]]
   100c4:	00068713          	mv	a4,a3
    for (int j = 0; j < 25; j++) {//[[7]]
      matrix[i][j] = 1;//[[8]]
   100c8:	00100613          	li	a2,1
   100cc:	00c0006f          	j	100d8 <main+0x44>
  for (int i = 0; i < 25; i++) {//[[6]]
   100d0:	06470713          	addi	a4,a4,100
   100d4:	02a70c63          	beq	a4,a0,1010c <main+0x78>
    for (int j = 0; j < 25; j++) {//[[7]]
   100d8:	f9c70793          	addi	a5,a4,-100
      matrix[i][j] = 1;//[[8]]
   100dc:	00c7a023          	sw	a2,0(a5)
    for (int j = 0; j < 25; j++) {//[[7]]
   100e0:	00478793          	addi	a5,a5,4
   100e4:	fee79ce3          	bne	a5,a4,100dc <main+0x48>
   100e8:	fe9ff06f          	j	100d0 <main+0x3c>
    }//[[9]]
  }//[[10]]
//[[11]]
  unsigned int sum = 0;//[[12]]
  for (int i = 0; i < 25; i++) {//[[13]]
   100ec:	06468693          	addi	a3,a3,100
   100f0:	02a68263          	beq	a3,a0,10114 <main+0x80>
    for (int j = 0; j < 25; j++) {//[[14]]
   100f4:	f9c68793          	addi	a5,a3,-100
      sum += matrix[i][j];//[[15]]
   100f8:	0007a703          	lw	a4,0(a5)
   100fc:	00e585b3          	add	a1,a1,a4
    for (int j = 0; j < 25; j++) {//[[14]]
   10100:	00478793          	addi	a5,a5,4
   10104:	fed79ae3          	bne	a5,a3,100f8 <main+0x64>
   10108:	fe5ff06f          	j	100ec <main+0x58>
  unsigned int sum = 0;//[[12]]
   1010c:	00000593          	li	a1,0
   10110:	fe5ff06f          	j	100f4 <main+0x60>
    }//[[16]]
  }//[[17]]
//[[18]]
  uns_to_str(buffer, sum);//[[19]]
   10114:	00001437          	lui	s0,0x1
   10118:	9cc40513          	addi	a0,s0,-1588 # 9cc <main-0xf6c8>
   1011c:	00250533          	add	a0,a0,sp
   10120:	00000097          	auipc	ra,0x0
   10124:	254080e7          	jalr	596(ra) # 10374 <uns_to_str>
  print_string(buffer);//[[20]]
   10128:	9cc40513          	addi	a0,s0,-1588
   1012c:	00250533          	add	a0,a0,sp
   10130:	00000097          	auipc	ra,0x0
   10134:	13c080e7          	jalr	316(ra) # 1026c <print_string>
  print_string("\n");//[[21]]
   10138:	00010537          	lui	a0,0x10
   1013c:	53450513          	addi	a0,a0,1332 # 10534 <release+0x38>
   10140:	00000097          	auipc	ra,0x0
   10144:	12c080e7          	jalr	300(ra) # 1026c <print_string>
  return 0;//[[22]]
}//[[23]]
   10148:	00000513          	li	a0,0
   1014c:	20010113          	addi	sp,sp,512
   10150:	7ec12083          	lw	ra,2028(sp)
   10154:	7e812403          	lw	s0,2024(sp)
   10158:	7f010113          	addi	sp,sp,2032
   1015c:	00008067          	ret

00010160 <_start>:
   10160:	01000537          	lui	a0,0x1000
   10164:	00050113          	mv	sp,a0
   10168:	02000537          	lui	a0,0x2000
   1016c:	00000097          	auipc	ra,0x0
   10170:	27c080e7          	jalr	636(ra) # 103e8 <init_heap>
   10174:	01000537          	lui	a0,0x1000
   10178:	00000097          	auipc	ra,0x0
   1017c:	010080e7          	jalr	16(ra) # 10188 <args_to_main>
   10180:	00000097          	auipc	ra,0x0
   10184:	054080e7          	jalr	84(ra) # 101d4 <terminate>

00010188 <args_to_main>:
asm("  call args_to_main");
asm("  call terminate");

extern int main(int argc, const char* argv);

int args_to_main(int* args_ptr) {
   10188:	ff010113          	addi	sp,sp,-16
   1018c:	00112623          	sw	ra,12(sp)
  int argc = *args_ptr;
  const char* argv = (const char*)args_ptr + sizeof(int);
  return main(argc, argv);
   10190:	00450593          	addi	a1,a0,4 # 1000004 <__BSS_END__+0xfee2c4>
   10194:	00052503          	lw	a0,0(a0)
   10198:	00000097          	auipc	ra,0x0
   1019c:	efc080e7          	jalr	-260(ra) # 10094 <main>
}
   101a0:	00c12083          	lw	ra,12(sp)
   101a4:	01010113          	addi	sp,sp,16
   101a8:	00008067          	ret

000101ac <inp>:

char inp() {
  char c;
  asm volatile("  li a7,1" : : : "a7");
   101ac:	00100893          	li	a7,1
  asm volatile("  ecall" : : : "a0");
   101b0:	00000073          	ecall
  asm volatile("  mv %0,a0" : "=r" (c));
   101b4:	00050513          	mv	a0,a0
  return c;
}
   101b8:	0ff57513          	zext.b	a0,a0
   101bc:	00008067          	ret

000101c0 <outp>:

void outp(char c) {
   101c0:	00050793          	mv	a5,a0
  asm volatile("  mv a0,%0" : : "r" (c) : "a0");
   101c4:	00078513          	mv	a0,a5
  asm volatile("  li a7,2" : : : "a7");
   101c8:	00200893          	li	a7,2
  asm volatile("  ecall");
   101cc:	00000073          	ecall
}
   101d0:	00008067          	ret

000101d4 <terminate>:

void terminate(int status) {
  asm volatile("  mv a0,%0" : : "r" (status));
   101d4:	00050513          	mv	a0,a0
  asm volatile("  li a7,3");
   101d8:	00300893          	li	a7,3
  asm volatile("  ecall");
   101dc:	00000073          	ecall
  // never returns (stops machine)
}
   101e0:	00008067          	ret

000101e4 <read_int_buffer>:

int read_int_buffer(int file, int* buffer, int max_size) {
   101e4:	00050693          	mv	a3,a0
   101e8:	00058713          	mv	a4,a1
   101ec:	00060793          	mv	a5,a2
  int retval;
  asm volatile("  mv a0,%0" : : "r" (file) : "a0");
   101f0:	00068513          	mv	a0,a3
  asm volatile("  mv a1,%0" : : "r" (buffer) : "a1");
   101f4:	00070593          	mv	a1,a4
  asm volatile("  mv a2,%0" : : "r" (max_size) : "a2");
   101f8:	00078613          	mv	a2,a5
  asm volatile("  li a7,4" : : : "a7");
   101fc:	00400893          	li	a7,4
  asm volatile("  ecall" : : : "a0");
   10200:	00000073          	ecall
  asm volatile("  mv %0,a0" : "=r" (retval));
   10204:	00050793          	mv	a5,a0
}
   10208:	00008067          	ret

0001020c <write_int_buffer>:

int write_int_buffer(int file, int* buffer, int size) {
   1020c:	00050693          	mv	a3,a0
   10210:	00058713          	mv	a4,a1
   10214:	00060793          	mv	a5,a2
  int retval;
  asm volatile("  mv a0,%0" : : "r" (file) : "a0");
   10218:	00068513          	mv	a0,a3
  asm volatile("  mv a1,%0" : : "r" (buffer) : "a1");
   1021c:	00070593          	mv	a1,a4
  asm volatile("  mv a2,%0" : : "r" (size) : "a2");
   10220:	00078613          	mv	a2,a5
  asm volatile("  li a7,5" : : : "a7");
   10224:	00500893          	li	a7,5
  asm volatile("  ecall" : : : "a0");
   10228:	00000073          	ecall
  asm volatile("  mv %0,a0" : "=r" (retval));
   1022c:	00050793          	mv	a5,a0
}
   10230:	00008067          	ret

00010234 <open_file>:

int open_file(char* path, char* flags) {
   10234:	00050713          	mv	a4,a0
   10238:	00058793          	mv	a5,a1
  int retval;
  asm volatile("  mv a0,%0" : : "r" (path) : "a0");
   1023c:	00070513          	mv	a0,a4
  asm volatile("  mv a1,%0" : : "r" (flags) : "a1");
   10240:	00078593          	mv	a1,a5
  asm volatile("  li a7,6" : : : "a7");
   10244:	00600893          	li	a7,6
  asm volatile("  ecall" : : : "a0");
   10248:	00000073          	ecall
  asm volatile("  mv %0,a0" : "=r" (retval));
   1024c:	00050793          	mv	a5,a0
}
   10250:	00008067          	ret

00010254 <close_file>:

int close_file(int file) {
   10254:	00050793          	mv	a5,a0
  int retval;
  asm volatile("  mv a0,%0" : : "r" (file) : "a0");
   10258:	00078513          	mv	a0,a5
  asm volatile("  li a7,6" : : : "a7");
   1025c:	00600893          	li	a7,6
  asm volatile("  ecall" : : : "a0");
   10260:	00000073          	ecall
  asm volatile("  mv %0,a0" : "=r" (retval));
   10264:	00050793          	mv	a5,a0
}
   10268:	00008067          	ret

0001026c <print_string>:


void print_string(const char* p) {
   1026c:	ff010113          	addi	sp,sp,-16
   10270:	00112623          	sw	ra,12(sp)
   10274:	00812423          	sw	s0,8(sp)
   10278:	00050413          	mv	s0,a0
  while (*p) { outp(*p++); };
   1027c:	00054503          	lbu	a0,0(a0)
   10280:	00050c63          	beqz	a0,10298 <print_string+0x2c>
   10284:	00140413          	addi	s0,s0,1
   10288:	00000097          	auipc	ra,0x0
   1028c:	f38080e7          	jalr	-200(ra) # 101c0 <outp>
   10290:	00044503          	lbu	a0,0(s0)
   10294:	fe0518e3          	bnez	a0,10284 <print_string+0x18>
}
   10298:	00c12083          	lw	ra,12(sp)
   1029c:	00812403          	lw	s0,8(sp)
   102a0:	01010113          	addi	sp,sp,16
   102a4:	00008067          	ret

000102a8 <read_string>:

void read_string(char* buffer, int max_chars) {
   102a8:	fe010113          	addi	sp,sp,-32
   102ac:	00112e23          	sw	ra,28(sp)
   102b0:	00812c23          	sw	s0,24(sp)
   102b4:	00912a23          	sw	s1,20(sp)
   102b8:	01212823          	sw	s2,16(sp)
   102bc:	01312623          	sw	s3,12(sp)
   102c0:	00050413          	mv	s0,a0
   102c4:	00058493          	mv	s1,a1
  int c = inp();
   102c8:	00000097          	auipc	ra,0x0
   102cc:	ee4080e7          	jalr	-284(ra) # 101ac <inp>
  while (c != '\n' && c != '\r' && max_chars > 1) {
   102d0:	00a00793          	li	a5,10
   102d4:	04f50263          	beq	a0,a5,10318 <read_string+0x70>
   102d8:	00d00793          	li	a5,13
   102dc:	02f50e63          	beq	a0,a5,10318 <read_string+0x70>
   102e0:	00100793          	li	a5,1
   102e4:	0297da63          	bge	a5,s1,10318 <read_string+0x70>
   102e8:	fff48493          	addi	s1,s1,-1
   102ec:	009404b3          	add	s1,s0,s1
   102f0:	00a00913          	li	s2,10
   102f4:	00d00993          	li	s3,13
    *buffer++ = c;
   102f8:	00140413          	addi	s0,s0,1
   102fc:	fea40fa3          	sb	a0,-1(s0)
    --max_chars;
    c = inp();
   10300:	00000097          	auipc	ra,0x0
   10304:	eac080e7          	jalr	-340(ra) # 101ac <inp>
  while (c != '\n' && c != '\r' && max_chars > 1) {
   10308:	01250863          	beq	a0,s2,10318 <read_string+0x70>
   1030c:	01350663          	beq	a0,s3,10318 <read_string+0x70>
   10310:	fe9414e3          	bne	s0,s1,102f8 <read_string+0x50>
    *buffer++ = c;
   10314:	00048413          	mv	s0,s1
  }
  // zero terminate:
  *buffer = 0;
   10318:	00040023          	sb	zero,0(s0)
}
   1031c:	01c12083          	lw	ra,28(sp)
   10320:	01812403          	lw	s0,24(sp)
   10324:	01412483          	lw	s1,20(sp)
   10328:	01012903          	lw	s2,16(sp)
   1032c:	00c12983          	lw	s3,12(sp)
   10330:	02010113          	addi	sp,sp,32
   10334:	00008067          	ret

00010338 <str_to_uns>:



unsigned int str_to_uns(const char* str) {
   10338:	00050713          	mv	a4,a0
  unsigned int val = *str++ - '0';
   1033c:	00150693          	addi	a3,a0,1
   10340:	00054783          	lbu	a5,0(a0)
   10344:	fd078513          	addi	a0,a5,-48
  while (*str) {
   10348:	00174703          	lbu	a4,1(a4)
   1034c:	02070263          	beqz	a4,10370 <str_to_uns+0x38>
    val = val * 10 + *str++ - '0';
   10350:	00168693          	addi	a3,a3,1
   10354:	00251793          	slli	a5,a0,0x2
   10358:	00a787b3          	add	a5,a5,a0
   1035c:	00179793          	slli	a5,a5,0x1
   10360:	00e787b3          	add	a5,a5,a4
   10364:	fd078513          	addi	a0,a5,-48
  while (*str) {
   10368:	0006c703          	lbu	a4,0(a3)
   1036c:	fe0712e3          	bnez	a4,10350 <str_to_uns+0x18>
  }
  return val;
}
   10370:	00008067          	ret

00010374 <uns_to_str>:

int uns_to_str(char* buffer, unsigned int val) {
   10374:	00050713          	mv	a4,a0
    buffer[0] = '0';
    buffer[1] = 0;
    return 1;
  }
  // produce digits in reverse order
  char* ptr = buffer;
   10378:	00050693          	mv	a3,a0
  while (val) {
    *ptr++ = (val % 10) + '0';
   1037c:	00a00513          	li	a0,10
  while (val) {
   10380:	00900813          	li	a6,9
  if (val == 0) {
   10384:	04058863          	beqz	a1,103d4 <uns_to_str+0x60>
    *ptr++ = (val % 10) + '0';
   10388:	00068793          	mv	a5,a3
   1038c:	00168693          	addi	a3,a3,1
   10390:	02a5f633          	remu	a2,a1,a0
   10394:	03060613          	addi	a2,a2,48
   10398:	fec68fa3          	sb	a2,-1(a3)
    val = val / 10;
   1039c:	00058613          	mv	a2,a1
   103a0:	02a5d5b3          	divu	a1,a1,a0
  while (val) {
   103a4:	fec862e3          	bltu	a6,a2,10388 <uns_to_str+0x14>
  }
  *ptr-- = 0;
   103a8:	00068023          	sb	zero,0(a3)
  int retval = ptr - buffer;
   103ac:	40e78533          	sub	a0,a5,a4
  // reverse
  while (ptr > buffer) {
   103b0:	02f77063          	bgeu	a4,a5,103d0 <uns_to_str+0x5c>
    char tmp = *ptr;
   103b4:	0007c683          	lbu	a3,0(a5)
    *ptr = *buffer;
   103b8:	00074603          	lbu	a2,0(a4)
   103bc:	00c78023          	sb	a2,0(a5)
    *buffer = tmp;
   103c0:	00d70023          	sb	a3,0(a4)
    --ptr;
   103c4:	fff78793          	addi	a5,a5,-1
    ++buffer;
   103c8:	00170713          	addi	a4,a4,1
  while (ptr > buffer) {
   103cc:	fef764e3          	bltu	a4,a5,103b4 <uns_to_str+0x40>
  }
  return retval;
}
   103d0:	00008067          	ret
    buffer[0] = '0';
   103d4:	03000793          	li	a5,48
   103d8:	00f70023          	sb	a5,0(a4)
    buffer[1] = 0;
   103dc:	000700a3          	sb	zero,1(a4)
    return 1;
   103e0:	00100513          	li	a0,1
   103e4:	00008067          	ret

000103e8 <init_heap>:
vp small_block_headers[NUM_SIZES];
vp free_space;
int initialized;

void init_heap(void* heap_start) {
  initialized = 0;
   103e8:	000117b7          	lui	a5,0x11
   103ec:	5207ac23          	sw	zero,1336(a5) # 11538 <initialized>
  free_space = heap_start;
   103f0:	000117b7          	lui	a5,0x11
   103f4:	52a7ae23          	sw	a0,1340(a5) # 1153c <free_space>
}
   103f8:	00008067          	ret

000103fc <allocate>:

void* allocate(int size) {
  if (!initialized) {
   103fc:	000117b7          	lui	a5,0x11
   10400:	5387a783          	lw	a5,1336(a5) # 11538 <initialized>
   10404:	02079863          	bnez	a5,10434 <allocate+0x38>
    initialized = 1;
   10408:	000117b7          	lui	a5,0x11
   1040c:	00100713          	li	a4,1
   10410:	52e7ac23          	sw	a4,1336(a5) # 11538 <initialized>
    for (int j = 0; j < NUM_SIZES; j++) small_block_headers[j] = NULL;
   10414:	000117b7          	lui	a5,0x11
   10418:	54078793          	addi	a5,a5,1344 # 11540 <small_block_headers>
   1041c:	00001737          	lui	a4,0x1
   10420:	80070713          	addi	a4,a4,-2048 # 800 <main-0xf894>
   10424:	00e78733          	add	a4,a5,a4
   10428:	0007a023          	sw	zero,0(a5)
   1042c:	00478793          	addi	a5,a5,4
   10430:	fee79ce3          	bne	a5,a4,10428 <allocate+0x2c>
  }
  if (size < 1) return NULL;
   10434:	0aa05c63          	blez	a0,104ec <allocate+0xf0>
  // make room for size in front of every allocation
  // storing the size allows us to get it back on release
  size += sizeof(int);
   10438:	00450713          	addi	a4,a0,4
  // align size
  int offset = size & (BLOCK_SIZE_STEP - 1);
   1043c:	00777793          	andi	a5,a4,7
  if (offset) {
   10440:	00078863          	beqz	a5,10450 <allocate+0x54>
    size = (size & ~offset) + BLOCK_SIZE_STEP;
   10444:	fff7c793          	not	a5,a5
   10448:	00e7f733          	and	a4,a5,a4
   1044c:	00870713          	addi	a4,a4,8
  }
  int num_size = size / BLOCK_SIZE_STEP;
   10450:	41f75793          	srai	a5,a4,0x1f
   10454:	0077f793          	andi	a5,a5,7
   10458:	00e787b3          	add	a5,a5,a4
   1045c:	4037d793          	srai	a5,a5,0x3
  if (num_size >= NUM_SIZES) {
   10460:	000016b7          	lui	a3,0x1
   10464:	08d75863          	bge	a4,a3,104f4 <allocate+0xf8>
    // large blocks requires a more complex machinery (dividing/joining blocks)
    // this is left as an exercise :-)
    return NULL;
  }
  vp* header = small_block_headers + num_size;
   10468:	00279793          	slli	a5,a5,0x2
   1046c:	000116b7          	lui	a3,0x11
   10470:	54068693          	addi	a3,a3,1344 # 11540 <small_block_headers>
   10474:	00d787b3          	add	a5,a5,a3
  if (*header == NULL) {
   10478:	0007a683          	lw	a3,0(a5)
   1047c:	00068e63          	beqz	a3,10498 <allocate+0x9c>
      *header = end_chunk;
      end_chunk -= size;
    }
  }
  // unlink
  vp* block = *header;
   10480:	0007a683          	lw	a3,0(a5)
  *header = *block;
   10484:	0006a603          	lw	a2,0(a3)
   10488:	00c7a023          	sw	a2,0(a5)
  // save size (including the size field itself)
  *block = (void*)size;
   1048c:	00e6a023          	sw	a4,0(a3)
  return block + 1;
   10490:	00468513          	addi	a0,a3,4
   10494:	00008067          	ret
    int allocation = size * 10;
   10498:	00271693          	slli	a3,a4,0x2
   1049c:	00e686b3          	add	a3,a3,a4
   104a0:	00169693          	slli	a3,a3,0x1
    if (allocation < MIN_ALLOCATION) {
   104a4:	06300613          	li	a2,99
   104a8:	00d64863          	blt	a2,a3,104b8 <allocate+0xbc>
      int num_chunks = MIN_ALLOCATION / size;
   104ac:	06400693          	li	a3,100
   104b0:	02e6c6b3          	div	a3,a3,a4
      allocation = num_chunks * size;
   104b4:	02e686b3          	mul	a3,a3,a4
    char* chunk = (char*) free_space;
   104b8:	00011637          	lui	a2,0x11
   104bc:	53c62583          	lw	a1,1340(a2) # 1153c <free_space>
    char* end_chunk = chunk + allocation;
   104c0:	00d586b3          	add	a3,a1,a3
    free_space = end_chunk;
   104c4:	52d62e23          	sw	a3,1340(a2)
    end_chunk -= size;
   104c8:	40e00533          	neg	a0,a4
   104cc:	40e686b3          	sub	a3,a3,a4
    while (end_chunk >= chunk) {
   104d0:	fab6e8e3          	bltu	a3,a1,10480 <allocate+0x84>
      *(vp*)end_chunk = *header;
   104d4:	0007a603          	lw	a2,0(a5)
   104d8:	00c6a023          	sw	a2,0(a3)
      *header = end_chunk;
   104dc:	00d7a023          	sw	a3,0(a5)
      end_chunk -= size;
   104e0:	00a686b3          	add	a3,a3,a0
    while (end_chunk >= chunk) {
   104e4:	feb6f8e3          	bgeu	a3,a1,104d4 <allocate+0xd8>
   104e8:	f99ff06f          	j	10480 <allocate+0x84>
  if (size < 1) return NULL;
   104ec:	00000513          	li	a0,0
   104f0:	00008067          	ret
    return NULL;
   104f4:	00000513          	li	a0,0
}
   104f8:	00008067          	ret

000104fc <release>:

void release(void* memory) {
  char* chunk = (char*) memory;
  chunk = chunk - 4;
  int size = *(int*)chunk;
  int num_size = size / BLOCK_SIZE_STEP;
   104fc:	ffc52703          	lw	a4,-4(a0)
   10500:	41f75793          	srai	a5,a4,0x1f
   10504:	0077f793          	andi	a5,a5,7
   10508:	00e787b3          	add	a5,a5,a4
   1050c:	4037d793          	srai	a5,a5,0x3
  vp* header = small_block_headers + num_size;
   10510:	00279793          	slli	a5,a5,0x2
   10514:	00011737          	lui	a4,0x11
   10518:	54070713          	addi	a4,a4,1344 # 11540 <small_block_headers>
   1051c:	00e787b3          	add	a5,a5,a4
  *(vp*)chunk = *header;
   10520:	0007a703          	lw	a4,0(a5)
   10524:	fee52e23          	sw	a4,-4(a0)
  chunk = chunk - 4;
   10528:	ffc50513          	addi	a0,a0,-4
  *header = chunk;
   1052c:	00a7a023          	sw	a0,0(a5)
}
   10530:	00008067          	ret
